`??ABTree@@QAEKPBE@Z`
`??_7?$BinaryDataBox@UFriendPointReward@@@@6B@`
`??_7?$BinaryDataBox@UGradeItemOption@@@@6B@`
`??_7?$BinaryDataBox@UItemDropLog@@@@6B@`
`??_7?$BinaryDataBox@UItemInfo@@@@6B@`
`??_7?$BinaryDataBox@UItemInfoServer@@@@6B@`
`??_7?$BinaryDataBox@UItemInvenDel@@@@6B@`
`??_7?$BinaryDataBox@UItemMoney@@@@6B@`
`??_7?$BinaryDataBox@UItemOptions@@@@6B@`
`??_7?$BinaryDataBox@UItemSort@@@@6B@`
`??_7?$BinaryDataBox@UMapInfo@@@@6B@`
`??_7?$BinaryDataBox@UShineReward@@@@6B@`
`??_7?$List@UCard@CardDeck@@@@6B@`
`??_7?$ListEraser@UCard@CardDeck@@@@6B@`
`??_7?$ListIteratorDefault@UCard@CardDeck@@@@6B@`
`??_7?$PROTOCOLFUNCTIONTEMPLETE@P8CPFs@@AEHPAUNETPACKET@@H@Z@@6B@`
`??_7BinaryData@@6B@`
`??_7CDataReader@@6B@`
`??_7CIOBuffer@@6B@`
`??_7CIOCP_Process_Interfece@@6B@`
`??_7CIOCP_Process_Manager@@6B@`
`??_7CIOCP_Process_Manager_App@@6B@`
`??_7CIOCP_Process_Socket@@6B@`
`??_7CIOCP_Process_Socket_Session@@6B@`
`??_7CItemAuthorityBase@@6B@`
`??_7CMD5Checksum@@6B@`
`??_7CPacket@@6B@`
`??_7CPacket_Parser_Socket_Session@@6B@`
`??_7CParser@@6B@`
`??_7CParserAccountLog@@6B@`
`??_7CSQLPReport@@6B@`
`??_7CSession@@6B@`
`??_7CSessionWorker@@6B@`
`??_7CSession_Manager@@6B@`
`??_7CSocket_Acceptor_Process_Interface@@6B@`
`??_7CSocket_Acceptor_Process_Manager@@6B@`
`??_7CSocket_Acceptor_Process_Manager_App@@6B@`
`??_7CSocket_Session@@6B@`
`??_7CSocket_Session_Manager@@6B@`
`??_7DBRecord@@6B@`
`??_7Database@@6B@`
`??_7FPRewardData@@6B@`
`??_7ItemAttrCls_ActionItem@@6B@`
`??_7ItemAttrCls_ActiveSkill@@6B@`
`??_7ItemAttrCls_Amount@@6B@`
`??_7ItemAttrCls_Amulet@@6B@`
`??_7ItemAttrCls_Armor@@6B@`
`??_7ItemAttrCls_BindItem@@6B@`
`??_7ItemAttrCls_Boot@@6B@`
`??_7ItemAttrCls_Bracelet@@6B@`
`??_7ItemAttrCls_ByteLot@@6B@`
`??_7ItemAttrCls_Capsule@@6B@`
`??_7ItemAttrCls_CardCollect@@6B@`
`??_7ItemAttrCls_CardCollect_Close@@6B@`
`??_7ItemAttrCls_CostumShield@@6B@`
`??_7ItemAttrCls_CostumWeapon@@6B@`
`??_7ItemAttrCls_Decoration@@6B@`
`??_7ItemAttrCls_DwrdLot@@6B@`
`??_7ItemAttrCls_Enchant@@6B@`
`??_7ItemAttrCls_Feed@@6B@`
`??_7ItemAttrCls_Furniture@@6B@`
`??_7ItemAttrCls_GBCoin@@6B@`
`??_7ItemAttrCls_ItemChest@@6B@`
`??_7ItemAttrCls_KQStep@@6B@`
`??_7ItemAttrCls_KingdomQuestItem@@6B@`
`??_7ItemAttrCls_MiniHouseSkin@@6B@`
`??_7ItemAttrCls_NoEffect@@6B@`
`??_7ItemAttrCls_Pet@@6B@`
`??_7ItemAttrCls_QuestLot@@6B@`
`??_7ItemAttrCls_RecallScroll@@6B@`
`??_7ItemAttrCls_Riding@@6B@`
`??_7ItemAttrCls_Shield@@6B@`
`??_7ItemAttrCls_SkillScroll@@6B@`
`??_7ItemAttrCls_UpSource@@6B@`
`??_7ItemAttrCls_UpgradeBlueGem@@6B@`
`??_7ItemAttrCls_UpgradeGoldGem@@6B@`
`??_7ItemAttrCls_UpgradeRedGem@@6B@`
`??_7ItemAttrCls_Weapon@@6B@`
`??_7ItemAttrCls_WeaponTitlaLicence@@6B@`
`??_7ItemAttrCls_WordLot@@6B@`
`??_7ItemAttributeClass@@6B@`
`??_7ItemBelongAttribute@@6B@`
`??_7ItemOptionsData@@6B@`
`??_7RewardData@@6B@`
`??_7String@@6B@`
`??_7WinService@@6B@`
`??_7_Generic_error_category@std@@6B@`
`??_7_Iostream_error_category@std@@6B@`
`??_7_System_error_category@std@@6B@`
`??_7bad_alloc@std@@6B@`
`??_7bad_exception@std@@6B@`
`??_7error_category@std@@6B@`
`??_7exception@std@@6B@`
`??_7length_error@std@@6B@`
`??_7logic_error@std@@6B@`
`??_7out_of_range@std@@6B@`
`??_7type_info@@6B@`
`??_C@_00CNPNBAHC@?$AA@`
`??_C@_01BJJEKLCA@?$CC?$AA@`
`??_C@_01CLKCMJKC@?5?$AA@`
`??_C@_01DCLJPIOD@?$CB?$AA@`
`??_C@_01DNKMNLPK@?$HM?$AA@`
`??_C@_01EEMJAFIK@?6?$AA@`
`??_C@_01FGNFDNOH@?$CF?$AA@`
`??_C@_01HNPIGOCE@?$CG?$AA@`
`??_C@_01IHBHIGKO@?0?$AA@`
`??_C@_01JKBOJNNK@?$FO?$AA@`
`??_C@_01JOAMLHOP@?9?$AA@`
`??_C@_01KMDKNFGN@?1?$AA@`
`??_C@_01MCMALHOG@a?$AA@`
`??_C@_01MIFGBAGJ@?$CL?$AA@`
`??_C@_01MNNFJEPP@?$DM?$AA@`
`??_C@_01NBENCBCI@?$CK?$AA@`
`??_C@_01NEMOKFLO@?$DN?$AA@`
`??_C@_01NOFIACDB@w?$AA@`
`??_C@_01PJKLJHI@?$HO?$AA@`
`??_C@_01PPODPGHN@?$DO?$AA@`
`??_C@_02BAABKJLB@?9?9?$AA@`
`??_C@_02CFKBDFGI@?1?2?$AA@`
`??_C@_02CHHINNLG@?$CK?1?$AA@`
`??_C@_02CJNFDJBF@PM?$AA@`
`??_C@_02CLFPBFFP@TZ?$AA@`
`??_C@_02DEDBPAFC@AM?$AA@`
`??_C@_02DHLNPPGH@?$HM?$DN?$AA@`
`??_C@_02DKCKIIND@?$CFs?$AA@`
`??_C@_02DPKJAMEF@?$CFd?$AA@`
`??_C@_02DPNLHKJD@a?$CL?$AA@`
`??_C@_02ECNGHCIF@?$CL?$CL?$AA@`
`??_C@_02EEKDKGMJ@?$DO?$DN?$AA@`
`??_C@_02EGOFBIJA@?$DN?$DN?$AA@`
`??_C@_02EHCHHCKH@?$DM?$DN?$AA@`
`??_C@_02FDNJECIE@?$CB?$DN?$AA@`
`??_C@_02FENAOKFI@?$CF?$DN?$AA@`
`??_C@_02FGJGFEAB@?$CG?$DN?$AA@`
`??_C@_02FJEHGPIO@?1?$DN?$AA@`
`??_C@_02FKMDLLOA@?9?$DN?$AA@`
`??_C@_02FMMEOLBI@?1?$CK?$AA@`
`??_C@_02FODMEDOG@?$DM?$DM?$AA@`
`??_C@_02FOEOMHFC@?$CL?$DN?$AA@`
`??_C@_02FPIMKNGF@?$CK?$DN?$AA@`
`??_C@_02GIPFHKNO@OK?$AA@`
`??_C@_02GPECMEKF@?$FL?$FN?$AA@`
`??_C@_02GPIOPFAK@?$DO?$DO?$AA@`
`??_C@_02HBOOOICD@?9?$DO?$AA@`
`??_C@_02HCKGKOFO@?$CI?$CJ?$AA@`
`??_C@_02HJDGHLHA@?5?$DO?$AA@`
`??_C@_02JDPG@rb?$AA@`
`??_C@_02KEGNLNML@?0?5?$AA@`
`??_C@_02LIELBOLL@?$DM?5?$AA@`
`??_C@_02MHEGNOJ@?$FO?$DN?$AA@`
`??_C@_02NCEOIEDG@?9o?$AA@`
`??_C@_02NJNOFBBI@?$CFx?$AA@`
`??_C@_02NONPIBCD@?$HM?$HM?$AA@`
`??_C@_02PLJDPFIO@00?$AA@`
`??_C@_02PPKAJPJL@?$CG?$CG?$AA@`
`??_C@_03BLEJJJBH@sin?$AA@`
`??_C@_03BMAOKBAD@Oct?$AA@`
`??_C@_03BPAIHHLG@shy?$AA@`
`??_C@_03CBGEMLIN@ETH?$AA@`
`??_C@_03CDNPDDLA@?$DM?$DM?$DN?$AA@`
`??_C@_03CMJPAGPB@eth?$AA@`
`??_C@_03CNMDKL@May?$AA@`
`??_C@_03DMHPHFFE@WEB?$AA@`
`??_C@_03FEFJNEK@Sat?$AA@`
`??_C@_03GGCAPAJC@Sep?$AA@`
`??_C@_03HJBDCHOM@Feb?$AA@`
`??_C@_03HLCNLMFP@reg?$AA@`
`??_C@_03HNOOIABH@yen?$AA@`
`??_C@_03IDFGHECI@Jun?$AA@`
`??_C@_03IDIOELNC@Fri?$AA@`
`??_C@_03IFJFEIGA@Aug?$AA@`
`??_C@_03IIINPABG@tan?$AA@`
`??_C@_03IKFCCPFF@?$DO?$DO?$DN?$AA@`
`??_C@_03IOFIKPDN@Thu?$AA@`
`??_C@_03IPHLGJI@?9n1?$AA@`
`??_C@_03JGHBODFD@pow?$AA@`
`??_C@_03JIHJHPIE@Jan?$AA@`
`??_C@_03JPJOFNIA@Nov?$AA@`
`??_C@_03KHJOGHMM@exp?$AA@`
`??_C@_03KLGMFNMG@?$GAEH?$AA@`
`??_C@_03KOEHGMDN@Sun?$AA@`
`??_C@_03LALBNOCG@cos?$AA@`
`??_C@_03LBGABGKK@Jul?$AA@`
`??_C@_03LBNAMJF@uml?$AA@`
`??_C@_03LEOLGMJP@Apr?$AA@`
`??_C@_03MGHMBJCF@log?$AA@`
`??_C@_03MHOMLAJA@Wed?$AA@`
`??_C@_03MJLDFKDL@_y0?$AA@`
`??_C@_03MKABNOCG@Dec?$AA@`
`??_C@_03MLMOILGK@Msg?$AA@`
`??_C@_03MNHNFDLC@?9?$DO?$CK?$AA@`
`??_C@_03NAGEINEP@Tue?$AA@`
`??_C@_03NAKIGLHK@_y1?$AA@`
`??_C@_03NJKJADM@not?$AA@`
`??_C@_03ODNJBKGA@Mar?$AA@`
`??_C@_03OFAPEBGM@?$CFs?6?$AA@`
`??_C@_03OFPLEBM@deg?$AA@`
`??_C@_03ONILCKOB@_yn?$AA@`
`??_C@_03PDAGKDH@Mon?$AA@`
`??_C@_03PHPAKPLH@0?$CFx?$AA@`
`??_C@_04BDPBJBMI@?5?7?0?$CC?$AA@`
`??_C@_04BILJKGCK@yuml?$AA@`
`??_C@_04BMIIGECP@Uuml?$AA@`
`??_C@_04CNLMGBGM@June?$AA@`
`??_C@_04COAGEIMF@copy?$AA@`
`??_C@_04COOMCNPB@sinh?$AA@`
`??_C@_04DFPGIIHA@8bit?$AA@`
`??_C@_04DGNIOLAM@Ouml?$AA@`
`??_C@_04EHEDPDJG@modf?$AA@`
`??_C@_04EIAKFFMI@sqrt?$AA@`
`??_C@_04EICJHKGJ@auml?$AA@`
`??_C@_04EJOCKNLB@sup1?$AA@`
`??_C@_04FIHNOPOL@asin?$AA@`
`??_C@_04FJHINJAO@tanh?$AA@`
`??_C@_04GCMPPOHC@sup2?$AA@`
`??_C@_04GFPJNGEK@ceil?$AA@`
`??_C@_04GIAGJOJD@para?$AA@`
`??_C@_04HDOCAJNK@?$CFs?$CFs?$AA@`
`??_C@_04HHCDBDLF@?5?7?$AN?6?$AA@`
`??_C@_04HIFJDBKI@iuml?$AA@`
`??_C@_04HLNEMPDD@sup3?$AA@`
`??_C@_04HMAEPGHP@ordm?$AA@`
`??_C@_04HMGIPDKN@Euml?$AA@`
`??_C@_04HPADIMGJ@ZONE?$AA@`
`??_C@_04HPJJNFIM@cosh?$AA@`
`??_C@_04IJOIFFGN@Auml?$AA@`
`??_C@_04IKJFFMEH@sect?$AA@`
`??_C@_04IMHNEFHF@macr?$AA@`
`??_C@_04INEGHELD@?$DMID?$DO?$AA@`
`??_C@_04JPPACPLE@ordf?$AA@`
`??_C@_04KEPJIHGP@fmod?$AA@`
`??_C@_04KMMDIKEB@?5?$CFs?5?$AA@`
`??_C@_04LHKGBPKB@7bit?$AA@`
`??_C@_04LJJIBOKM@Iuml?$AA@`
`??_C@_04LNKJNMKJ@euml?$AA@`
`??_C@_04LOAJBDKD@true?$AA@`
`??_C@_04MIEPOIFP@July?$AA@`
`??_C@_04MLLJIGOK@atan?$AA@`
`??_C@_04NIHEBCM@?5new?$AA@`
`??_C@_04NNEJELCL@uuml?$AA@`
`??_C@_04OCCELDNI@?$CF04d?$AA@`
`??_C@_04OCKNFIJG@cent?$AA@`
`??_C@_04ODHECPBC@fabs?$AA@`
`??_C@_04OIIEOHIK@?$FLID?$FN?$AA@`
`??_C@_04OKIIBCCG@Gone?$AA@`
`??_C@_04PDIFKINK@acos?$AA@`
`??_C@_04PHBJMEAI@ouml?$AA@`
`??_C@_04PHHIFBLJ@nbsp?$AA@`
`??_C@_04PNGHNPPC@?$CDEND?$AA@`
`??_C@_05BNEGCBFC@iexcl?$AA@`
`??_C@_05CAFMJCMP@aring?$AA@`
`??_C@_05CEJMAHNP@ldexp?$AA@`
`??_C@_05CHPAJHPJ@Aring?$AA@`
`??_C@_05CJDDEJDD@PATCH?$AA@`
`??_C@_05DBCKNHKL@Ocirc?$AA@`
`??_C@_05DGIGNCJN@ocirc?$AA@`
`??_C@_05DGINIOCI@?4?2Log?$AA@`
`??_C@_05DMJDNLEJ@April?$AA@`
`??_C@_05DNEBIAHO@1?$CDINF?$AA@`
`??_C@_05DNIIFBMG@?$CFs?5?$CFs?$AA@`
`??_C@_05EBEEKLCG@pound?$AA@`
`??_C@_05EEJEIAPO@acute?$AA@`
`??_C@_05EOHGHCHD@exp10?$AA@`
`??_C@_05GGABFNI@AElig?$AA@`
`??_C@_05GKKHEGJL@frexp?$AA@`
`??_C@_05GMKDJMCJ@szlig?$AA@`
`??_C@_05HAKNIAEG@?0?5?7?$AN?6?$AA@`
`??_C@_05HDBENHAL@THORN?$AA@`
`??_C@_05HGHHAHAP@log10?$AA@`
`??_C@_05HPCKOFNC@March?$AA@`
`??_C@_05IBIHEBPO@?$FLHEX?$FN?$AA@`
`??_C@_05JALBPEMN@Ecirc?$AA@`
`??_C@_05JDGHEPJG@Found?$AA@`
`??_C@_05JDGHPGFG@Ucirc?$AA@`
`??_C@_05JEMLPDGA@ucirc?$AA@`
`??_C@_05JGDBENOH@_logb?$AA@`
`??_C@_05JHBNPBPL@ecirc?$AA@`
`??_C@_05KBKMEMPO@_cabs?$AA@`
`??_C@_05KHLCHHI@?$GARTTI?$AA@`
`??_C@_05KLBDPFGC@e?$CL000?$AA@`
`??_C@_05KLIFGPMF@cedil?$AA@`
`??_C@_05KNGEOGJB@atan2?$AA@`
`??_C@_05LAPONLG@false?$AA@`
`??_C@_05LCALGNL@Acirc?$AA@`
`??_C@_05LCKIIOJE@?$CFd?1?$CFd?$AA@`
`??_C@_05LIICDAEF@thorn?$AA@`
`??_C@_05MAANDPOK@aelig?$AA@`
`??_C@_05MEFBHAJG@?$CDREAD?$AA@`
`??_C@_05MIMLDON@acirc?$AA@`
`??_C@_05MJENMIDH@?4mdmp?$AA@`
`??_C@_05MJOOAIJH@times?$AA@`
`??_C@_05MPFJLGEB@raquo?$AA@`
`??_C@_05NKKGEGHI@?$DMHEX?$DO?$AA@`
`??_C@_05OANPDBIA@icirc?$AA@`
`??_C@_05OHHDDELG@Icirc?$AA@`
`??_C@_05PBJFFIGL@floor?$AA@`
`??_C@_05PCPGMEFP@micro?$AA@`
`??_C@_05PGIFNFKK@laquo?$AA@`
`??_C@_05PHHOCPM@1?$CDIND?$AA@`
`??_C@_05PLHGOPJD@LOGIN?$AA@`
`??_C@_06BBMKGLNL@yacute?$AA@`
`??_C@_06BCNNPAPL@agrave?$AA@`
`??_C@_06BFMEMCCP@oacute?$AA@`
`??_C@_06BJNHDIDD@Uacute?$AA@`
`??_C@_06CAEEBBM@plusmn?$AA@`
`??_C@_06CBDCLOJM@igrave?$AA@`
`??_C@_06CJCPONHE@Egrave?$AA@`
`??_C@_06DCBACPNP@CLIENT?$AA@`
`??_C@_06DIJPEION@?$CFs?$CFs?$CFs?$AA@`
`??_C@_06DNFIPCMD@otilde?$AA@`
`??_C@_06DNHFEHGA@ccedil?$AA@`
`??_C@_06ECOCILKG@ograve?$AA@`
`??_C@_06EFPLLJHC@aacute?$AA@`
`??_C@_06EOPBHBLK@Ugrave?$AA@`
`??_C@_06FEJCMAOL@Ntilde?$AA@`
`??_C@_06FFHJEHBN@divide?$AA@`
`??_C@_06FHBGPFGH@?5new?$FL?$FN?$AA@`
`??_C@_06FHFOAHML@system?$AA@`
`??_C@_06FNFBAEBE@binary?$AA@`
`??_C@_06GHPCKEAG@__eabi?$AA@`
`??_C@_06GNGHIJJO@atilde?$AA@`
`??_C@_06HEGEHONB@curren?$AA@`
`??_C@_06HGBEPHBF@iacute?$AA@`
`??_C@_06HHCHNCAA@middot?$AA@`
`??_C@_06HJKNGHPC@Oslash?$AA@`
`??_C@_06HOAJKEPN@Eacute?$AA@`
`??_C@_06IBEMEICG@ugrave?$AA@`
`??_C@_06IJAHCIFC@frac12?$AA@`
`??_C@_06IKEGIAOO@Aacute?$AA@`
`??_C@_06ILPBEBAD@brvbar?$AA@`
`??_C@_06IMKFLFPG@1?$CDQNAN?$AA@`
`??_C@_06INFPLCDK@Ograve?$AA@`
`??_C@_06JECMNKMI@Friday?$AA@`
`??_C@_06JEFEFGEJ@base64?$AA@`
`??_C@_06JLCPPJHH@ntilde?$AA@`
`??_C@_06JLEDEDGH@Monday?$AA@`
`??_C@_06JMONPFKG@iquest?$AA@`
`??_C@_06KCNKLAAC@Atilde?$AA@`
`??_C@_06KEMJHOLD@UPLOAD?$AA@`
`??_C@_06LBBHFDDG@August?$AA@`
`??_C@_06LBLEJNGB@eacute?$AA@`
`??_C@_06LGBAFOGO@oslash?$AA@`
`??_C@_06LJKJMOIJ@Iacute?$AA@`
`??_C@_06MEIMCGCF@_hypot?$AA@`
`??_C@_06MPDJINPP@?$CDWRITE?$AA@`
`??_C@_06NGGKABKP@uacute?$AA@`
`??_C@_06NKHJPLLD@Oacute?$AA@`
`??_C@_06NMNJFLLK@frac34?$AA@`
`??_C@_06NNBGLOCE@?$CDCLEAR?$AA@`
`??_C@_06NNGAMJGH@Agrave?$AA@`
`??_C@_06NOHHFCEH@Yacute?$AA@`
`??_C@_06NPFNIPNE@frac14?$AA@`
`??_C@_06OGJCNEOI@egrave?$AA@`
`??_C@_06OHLOMLHG@?$CFs?5?$CFs?5?$AA@`
`??_C@_06OJHGLDPL@?$CInull?$CJ?$AA@`
`??_C@_06OOIPIHAA@Igrave?$AA@`
`??_C@_06OOPIFAJ@Sunday?$AA@`
`??_C@_06PCMIHOPM@Ccedil?$AA@`
`??_C@_06PCOFMLFP@Otilde?$AA@`
`??_C@_06PFLAMGHC@OPTOOL?$AA@`
`??_C@_06PGGFOGJG@1?$CDSNAN?$AA@`
`??_C@_06PGHHOBB@REMOVE?$AA@`
`??_C@_07BAAGCFCM@Tuesday?$AA@`
`??_C@_07BBIDHECN@Created?$AA@`
`??_C@_07CGJPFGJA@January?$AA@`
`??_C@_07DCLBNMLN@generic?$AA@`
`??_C@_07FAHLBAOH@?$FLFLOAT?$FN?$AA@`
`??_C@_07FEEIOKP@?$GAvcall?8?$AA@`
`??_C@_07FPCDHGMM@?5delete?$AA@`
`??_C@_07JJJGGCEE@x?9token?$AA@`
`??_C@_07JJNFCEND@October?$AA@`
`??_C@_07JOMMBBKO@__ptr64?$AA@`
`??_C@_07KOLFKCDI@__cdecl?$AA@`
`??_C@_07MEFACOEC@?$CDDEFINE?$AA@`
`??_C@_07MEIFIBCB@?$DMFLOAT?$DO?$AA@`
`??_C@_07NFANNNEC@UNKNOWN?$AA@`
`??_C@_07NNGPDNPG@No?5Data?$AA@`
`??_C@_07PEJMOBNF@FlsFree?$AA@`
`??_C@_08BPBNCDIB@MM?1dd?1yy?$AA@`
`??_C@_08DOBOODLA@Accepted?$AA@`
`??_C@_08DPPHFGIL@LAUNCHER?$AA@`
`??_C@_08EDHMEBNP@December?$AA@`
`??_C@_08EEGAHEEF@?$CF04d?$CF02d?$AA@`
`??_C@_08EHJDFFNH@__based?$CI?$AA@`
`??_C@_08GHMPAG@__pascal?$AA@`
`??_C@_08GNJGEPFN@February?$AA@`
`??_C@_08HACCIKIA@Thursday?$AA@`
`??_C@_08HCHEGEOA@November?$AA@`
`??_C@_08IGLONNOE@?$DMSTRING?$DO?$AA@`
`??_C@_08INBOOONO@Saturday?$AA@`
`??_C@_08INEPGKHH@No?5error?$AA@`
`??_C@_08JCCMCCIL@HH?3mm?3ss?$AA@`
`??_C@_08JCONCOJD@?$CDINCLUDE?$AA@`
`??_C@_08JENACEDF@ShineLog?$AA@`
`??_C@_08KNHFBNJ@FlsAlloc?$AA@`
`??_C@_08LHJFAFGD@operator?$AA@`
`??_C@_08LLFFHHDJ@?$GAtypeof?8?$AA@`
`??_C@_08LLGCOLLL@iostream?$AA@`
`??_C@_08OBABFOLI@?$GAstring?8?$AA@`
`??_C@_08OJCIFGDF@Conflict?$AA@`
`??_C@_08PAGMAJON@?$FLSTRING?$FN?$AA@`
`??_C@_09BBFLKNEP@tt?5hhmmss?$AA@`
`??_C@_09BBNNKMOI@?$CFs?5?$CFs?$DO?5?$CFs?$AA@`
`??_C@_09BHHEALKD@September?$AA@`
`??_C@_09BLBHBJP@?$GAvbtable?8?$AA@`
`??_C@_09CCJJMCAM@?$CDSEPRATOR?$AA@`
`??_C@_09CFCBFJND@Not?5Found?$AA@`
`??_C@_09DLIGFAKA@Wednesday?$AA@`
`??_C@_09FAMPMKIP@See?5Other?$AA@`
`??_C@_09HIJEGCPM@__clrcall?$AA@`
`??_C@_09IFJBGAPI@__stdcall?$AA@`
`??_C@_09IFPLHPGF@?$GAvftable?8?$AA@`
`??_C@_09IOHMHKPC@?$CF04X?3?$CF08X?$AA@`
`??_C@_09JFBGBFIM@Use?5Proxy?$AA@`
`??_C@_09KKJFIDEP@NTDLL?4DLL?$AA@`
`??_C@_09KOIOCIHC@?$DMUNKNOWN?$DO?$AA@`
`??_C@_09LBNFPBCA@?5delete?$FL?$FN?$AA@`
`??_C@_09LMDIMFJD@Forbidden?$AA@`
`??_C@_09LNJMCMFP@?$FLINTEGER?$FN?$AA@`
`??_C@_09MAHHALDC@?$DMINTEGER?$DO?$AA@`
`??_C@_09NOIJLNLL@Try?5Again?$AA@`
`??_C@_0BA@BAANLGMK@MapViewInfo?4shn?$AA@`
`??_C@_0BA@BIBLIOEK@Resource?5device?$AA@`
`??_C@_0BA@BLJOMCEM@SERVER_ID_LOGIN?$AA@`
`??_C@_0BA@CJBACOOL@Not?5a?5directory?$AA@`
`??_C@_0BA@CJILIODE@AbStateView?4shn?$AA@`
`??_C@_0BA@DEMPFFAH@?$CFs?5?9?5READ?5ERROR?$AA@`
`??_C@_0BA@DFBLHOAH@?$CFs?5?9?5UNKNOWNED?4?$AA@`
`??_C@_0BA@FKIAIBGA@No?5such?5process?$AA@`
`??_C@_0BA@GDCKBJBL@MapWayPoint?4shn?$AA@`
`??_C@_0BA@GILGOCGC@MinimonInfo?4shn?$AA@`
`??_C@_0BA@HELNPOGG@ZoneLinktoError?$AA@`
`??_C@_0BA@HKKCFGHO@MobViewInfo?4shn?$AA@`
`??_C@_0BA@HNOPNCHB@GetActiveWindow?$AA@`
`??_C@_0BA@JCKHPIPI@Length?5Required?$AA@`
`??_C@_0BA@JFNIOLAK@string?5too?5long?$AA@`
`??_C@_0BA@JGKGKAME@Not?5Implemented?$AA@`
`??_C@_0BA@JIFBMKPM@ProduceView?4shn?$AA@`
`??_C@_0BA@JKBADMGJ@ActiveSkill?4shn?$AA@`
`??_C@_0BA@JLCOBJGO@NPCViewInfo?4shn?$AA@`
`??_C@_0BA@KBCDOMBN@?$GAudt?5returning?8?$AA@`
`??_C@_0BA@KKLDJDLB@?$GAlocal?5vftable?8?$AA@`
`??_C@_0BA@MJNLGEOM@SERVER_ID_PATCH?$AA@`
`??_C@_0BA@NNLNHGMN@Partial?5Content?$AA@`
`??_C@_0BA@OMMBBMJI@UpgradeInfo?4shn?$AA@`
`??_C@_0BB@CAHAECFA@quoted?9printable?$AA@`
`??_C@_0BB@CEJMAILH@SERVER_ID_CLIENT?$AA@`
`??_C@_0BB@FCBJFCAJ@Result?5too?5large?$AA@`
`??_C@_0BB@FPHPIBCC@?$CFs?5?9?5WRITE?5ERROR?$AA@`
`??_C@_0BB@FPNGCNDB@ItemShopView?4shn?$AA@`
`??_C@_0BB@GIPFEIDK@DiceDividind?4shn?$AA@`
`??_C@_0BB@GKNJPEJG@Request?5Time?9out?$AA@`
`??_C@_0BB@HIHPNGNH@Assert?$CFs?$CF02d?4txt?$AA@`
`??_C@_0BB@HLFEHKPE@Multiple?5Choices?$AA@`
`??_C@_0BB@HMGGCEBG@Invalid?5argument?$AA@`
`??_C@_0BB@HOPOIPGC@ItemViewInfo?4shn?$AA@`
`??_C@_0BB@IMDKMPFB@Not?5enough?5space?$AA@`
`??_C@_0BB@KMEKEBBK@WeaponAttrib?4shn?$AA@`
`??_C@_0BB@LIFNFFDK@?$DMSESSION?5CLOSED?$DO?$AA@`
`??_C@_0BB@LMLAFPHK@MapLinkPoint?4shn?$AA@`
`??_C@_0BB@LMPIHCBH@Payment?5Required?$AA@`
`??_C@_0BB@MDMDDEPK@PassiveSkill?4shn?$AA@`
`??_C@_0BB@OCJLGDEM@?$CF04d?$CF02d?$CF02d?$CF02d?$AA@`
`??_C@_0BB@ODDMOBBK@SERVER_ID_OPTOOL?$AA@`
`??_C@_0BB@PHMOGCPC@Gateway?5Time?9out?$AA@`
`??_C@_0BC@BEDIHIDK@Filename?5too?5long?$AA@`
`??_C@_0BC@BPBCNFPI@Moved?5Permanently?$AA@`
`??_C@_0BC@DAFEJGAK@?5Type?5Descriptor?8?$AA@`
`??_C@_0BC@DBKGKAIJ@DB_Init?5FAILED?5?$DN?5?$AA@`
`??_C@_0BC@EOODALEL@Unknown?5exception?$AA@`
`??_C@_0BC@FGJKGFG@ItemDismantle?4shn?$AA@`
`??_C@_0BC@FGNJNDCE@System?5Time?$CIUTC?$CJ?5?$AA@`
`??_C@_0BC@HFNFNKAI@Permission?5denied?$AA@`
`??_C@_0BC@HKPNECK@Exec?5format?5error?$AA@`
`??_C@_0BC@IFHKGHMN@AccountLog_?$CFs?4txt?$AA@`
`??_C@_0BC@JGHCLIAP@SERVER_ID_UNKNOWN?$AA@`
`??_C@_0BC@LCLCCDGC@ExitLog?$CFs?$CF02d?4txt?$AA@`
`??_C@_0BC@LJEFODJG@Local?5?5Time?5?5?5?5?5?5?$AA@`
`??_C@_0BC@MFFGCDFL@Arg?5list?5too?5long?$AA@`
`??_C@_0BC@MNIKNFKD@MiniDumpWriteDump?$AA@`
`??_C@_0BC@NJGBAPCK@Socket_IOCP_Write?$AA@`
`??_C@_0BC@OJMJCFLK@ChargedEffect?4shn?$AA@`
`??_C@_0BD@CCIPIALO@Method?5Not?5Allowed?$AA@`
`??_C@_0BD@CFPBOCGN@ActionViewInfo?4shn?$AA@`
`??_C@_0BD@CHFPGOII@Service?5remove?5ok?4?$AA@`
`??_C@_0BD@CLHBCGPB@No?5locks?5available?$AA@`
`??_C@_0BD@DHNJBEMD@SERVER_ID_LAUNCHER?$AA@`
`??_C@_0BD@GHIFEFHM@?$CFs?5?9?5WRITE?5DATA?5OK?$AA@`
`??_C@_0BD@HHGDFDBJ@GetLastActivePopup?$AA@`
`??_C@_0BD@JDLKDPAB@?$GAvbase?5destructor?8?$AA@`
`??_C@_0BD@KKNFOBBD@Input?1output?5error?$AA@`
`??_C@_0BD@LADIBJGA@?5?$CFs?$CI?$CJ?$CL?$CF04d?5byte?$CIs?$CJ?$AA@`
`??_C@_0BD@LGICGFMM@?5Base?5Class?5Array?8?$AA@`
`??_C@_0BD@LNFMBLAJ@EffectViewInfo?4shn?$AA@`
`??_C@_0BD@LOHELEP@No?5child?5processes?$AA@`
`??_C@_0BD@MIJNHJNI@?5at?3?5?$DM?5?$CF04X?3?$CF08X?5?$DO?$AA@`
`??_C@_0BD@NDMHPAED@Expectation?5Failed?$AA@`
`??_C@_0BD@NPMOCBPC@?$DMMAIN?5THREAD?5STOP?$DO?$AA@`
`??_C@_0BD@PJMNAMDM@Temporary?5Redirect?$AA@`
`??_C@_0BE@BBDBJOM@Precondition?5Failed?$AA@`
`??_C@_0BE@BFCFJHGH@?$CFs?5?$CFs?5?$CFs?5?$CFs?5?$CFs?5?9?5?$CFs?$AA@`
`??_C@_0BE@CDOFLFEF@TermExtendMatch?4shn?$AA@`
`??_C@_0BE@CKGJFCPC@dddd?0?5MMMM?5dd?0?5yyyy?$AA@`
`??_C@_0BE@ECNAHOHA@?$DMMAIN?5THREAD?5START?$DO?$AA@`
`??_C@_0BE@EKEKCODC@MiniHouseObjAni?4shn?$AA@`
`??_C@_0BE@FFMOMMDD@?$CF02d?3?$CF02d?3?$CF02d?3?$CF03d?$AA@`
`??_C@_0BE@GFANICOI@IP?$DN?$CFs?3?$CFd?0?5SOCKET?$DN?$CFd?$AA@`
`??_C@_0BE@GIIIPAGN@ActiveSkillView?4shn?$AA@`
`??_C@_0BE@ICMCHPHH@Directory?5not?5empty?$AA@`
`??_C@_0BE@INBJMKGG@Too?5many?5open?5files?$AA@`
`??_C@_0BE@KMCACGOM@MiniHouseEndure?4shn?$AA@`
`??_C@_0BE@KNDIJOEO@GradeItemOption?4shn?$AA@`
`??_C@_0BE@MKEJEFMH@CollectCardView?4shn?$AA@`
`??_C@_0BE@NFGDDCEF@Bad?5file?5descriptor?$AA@`
`??_C@_0BE@NGHLFKBN@Service?5Unavailable?$AA@`
`??_C@_0BE@OGGBKEIC@WeaponTitleData?4shn?$AA@`
`??_C@_0BF@BIDANKGB@?$CFs?5?9?5WRITE?5FORMAT?5OK?$AA@`
`??_C@_0BF@BLPCMAHP@EXCEPTION_GUARD_PAGE?$AA@`
`??_C@_0BF@FLLDOCJP@EXCEPTION_BREAKPOINT?$AA@`
`??_C@_0BF@HBMMJABD@PassiveSkillView?4shn?$AA@`
`??_C@_0BF@JCPCBPND@SERVER_ID_DB_GAMELOG?$AA@`
`??_C@_0BF@JIJGIFPB@?$CF04d?$CF02d?$CF02d?$CF02d?$CF02d?$AA@`
`??_C@_0BF@JPHACFNN@?$CFs?5?$CFd?5?$CF02d?3?$CF02d?3?$CF02d?$AA@`
`??_C@_0BF@KDPPACIK@?$GAlocal?5static?5guard?8?$AA@`
`??_C@_0BF@KJAPCMEJ@MarketSearchInfo?4shn?$AA@`
`??_C@_0BF@LLKFCKHN@Code?3?$CFX?3?$CFd?7SHN?3?$CFX?3?$CFd?$AA@`
`??_C@_0BF@MHDJPGI@?$DM?5END?5OF?5MAIN?5?$DN?5?$CFd?5?$DO?$AA@`
`??_C@_0BF@NFCKHBKE@MapDataBox?3?3mdb_Load?$AA@`
`??_C@_0BF@POIEENBM@SERVER_ID_DB_ACCOUNT?$AA@`
`??_C@_0BG@BDBDLJCL@?$CFs?5?9?5WRITE?5DATA?5ERROR?$AA@`
`??_C@_0BG@DDBFNKBH@Read?9only?5file?5system?$AA@`
`??_C@_0BG@HDMCEMOH@FILE?5PROCESSING?5?9?5?$CFs?5?$AA@`
`??_C@_0BG@HPCFEJHG@EXCEPTION_SINGLE_STEP?$AA@`
`??_C@_0BG@KLEAJEFJ@Illegal?5byte?5sequence?$AA@`
`??_C@_0BG@KOLNKHBL@?$DMSERVER?5SELF?5STOPPED?$DO?$AA@`
`??_C@_0BG@NJGANGCC@Internal?5Server?5Error?$AA@`
`??_C@_0BG@PADBLCHM@iostream?5stream?5error?$AA@`
`??_C@_0BG@PMALKKB@Request?9URI?5Too?5Large?$AA@`
`??_C@_0BH@DBPHHKBK@SERVER_ID_WORLDMANAGER?$AA@`
`??_C@_0BH@EPAMAFBC@Service?5remove?5failed?4?$AA@`
`??_C@_0BH@GAGOGLJC@?$CKListen?5Socket?5Error?$CB?$CK?$AA@`
`??_C@_0BH@HLJJIAEN@Unsupported?5Media?5Type?$AA@`
`??_C@_0BH@HNBKDLPO@EXCEPTION_INT_OVERFLOW?$AA@`
`??_C@_0BH@IDIFDLPK@Service?5upload?5failed?4?$AA@`
`??_C@_0BH@JOJCDHHM@?$DMSESSION?5DISCONNECTED?$DO?$AA@`
`??_C@_0BH@LCJNNOKG@SERVER_ID_DB_CHARACTER?$AA@`
`??_C@_0BH@LELMAKMI@CharacterTitleData?4shn?$AA@`
`??_C@_0BH@LGFBHAFE@EXCEPTION_FLT_OVERFLOW?$AA@`
`??_C@_0BH@LHMKOIFG@_fiesta_Accountlog?4log?$AA@`
`??_C@_0BH@PBGAHIAI@MinimonAutoUseItem?4shn?$AA@`
`??_C@_0BH@PDIGONOI@MiniHouseFurniture?4shn?$AA@`
`??_C@_0BI@BDAPJAHO@Service?5upload?5only?5ok?4?$AA@`
`??_C@_0BI@BJFCGOHL@Operation?5not?5permitted?$AA@`
`??_C@_0BI@BKMKNJDF@?$CKFAILED?5SCRIPTOR?5READ?$CK?5?$AA@`
`??_C@_0BI@BNDIILLI@EXCEPTION_IN_PAGE_ERROR?$AA@`
`??_C@_0BI@CFPLBAOH@invalid?5string?5position?$AA@`
`??_C@_0BI@CHJOCNCF@?$DMSERVER?5MANUAL?5STOPPED?$DO?$AA@`
`??_C@_0BI@CHKFJJC@EXCEPTION_FLT_UNDERFLOW?$AA@`
`??_C@_0BI@DFKBFLJE@GetProcessWindowStation?$AA@`
`??_C@_0BI@EKDPFIKB@?$CFs?5?9?5WRITE?5FORMAT?5ERROR?$AA@`
`??_C@_0BI@FEALHKLD@No?5space?5left?5on?5device?$AA@`
`??_C@_0BI@GOIELPIK@Microsoft?5C?$CL?$CL?5Exception?$AA@`
`??_C@_0BI@KPACNICB@SERVER_ID_DB_ACCOUNTLOG?$AA@`
`??_C@_0BI@PBHBEHKJ@?$CKAccept_Process?5Error?$CB?$CK?$AA@`
`??_C@_0BJ@BKJLBIPE@EXCEPTION_INVALID_HANDLE?$AA@`
`??_C@_0BJ@EJPDOKBK@?$HLCALL?5p_Report_Del?$CI?$DP?0?$DP?$CJ?$HN?$AA@`
`??_C@_0BJ@EOJECOI@?$CFs?2?$CFs_?$CF04d?9?$CF02d?9?$CF02d?4txt?$AA@`
`??_C@_0BJ@FJAJIDKM@DATA?5DEFINNING?0?5EOF?5Come?$AA@`
`??_C@_0BJ@FNEOPPMM@EXCEPTION_STACK_OVERFLOW?$AA@`
`??_C@_0BJ@IHEHINLI@Function?5not?5implemented?$AA@`
`??_C@_0BJ@IPNMKMOO@ChargedDeletableBuff?4shn?$AA@`
`??_C@_0BJ@LFDMKDCM@?4?2DebugMessage?2?$CFs_?$CFs?4txt?$AA@`
`??_C@_0BJ@LMJJCGDI@Service?5unknown?5command?4?$AA@`
`??_C@_0BJ@MMEIEOIG@Request?5Entity?5Too?5Large?$AA@`
`??_C@_0BJ@NJKHLIH@?$HLCALL?5p_Report_Get?$CI?$DP?0?$DP?$CJ?$HN?$AA@`
`??_C@_0BJ@NPJPFJML@?$CF04d?$CF02d?$CF02d?$CF02d?$CF02d?$CF02d?$AA@`
`??_C@_0BJ@OPBJBGGL@?$CKFAILED?5GetMyServerInfo?$CK?$AA@`
`??_C@_0BK@CFCOFLF@?5Complete?5Object?5Locator?8?$AA@`
`??_C@_0BK@COBCCPEI@EXCEPTION_FLT_STACK_CHECK?$AA@`
`??_C@_0BK@DEKFELLI@GetUserObjectInformationW?$AA@`
`??_C@_0BK@DKLPBKLF@Launching?5the?5server?4?4?4?4?4?$AA@`
`??_C@_0BK@DPKMCKJ@No?5such?5device?5or?5address?$AA@`
`??_C@_0BK@FJBOAFDK@Interrupted?5function?5call?$AA@`
`??_C@_0BK@FKGNKNGI@?$DMSESSION?5WORKER?5?$CD?$CFd?5FREE?$DO?$AA@`
`??_C@_0BK@FMDHKPNF@No?5such?5file?5or?5directory?$AA@`
`??_C@_0BK@JAEBMJJM@Resource?5deadlock?5avoided?$AA@`
`??_C@_0BK@LPODENKE@ItemViewEquipTypeInfo?4shn?$AA@`
`??_C@_0BK@PAIJHFHI@fc_NC_DATA_REPORT_ADD_REQ?$AA@`
`??_C@_0BL@CLIPGLGB@?$GAdynamic?5initializer?5for?5?8?$AA@`
`??_C@_0BL@CMOMFGDN@EXCEPTION_ACCESS_VIOLATION?$AA@`
`??_C@_0BL@CNOONJFP@?$GAplacement?5delete?5closure?8?$AA@`
`??_C@_0BL@COIOCEME@?$DMIOCP?5WORKTHREAD?5?$CD?$CFd?5FREE?$DO?$AA@`
`??_C@_0BL@GBBFKFHI@HTTP?5Version?5not?5supported?$AA@`
`??_C@_0BL@HJPDFKEO@EXCEPTION_PRIV_INSTRUCTION?$AA@`
`??_C@_0BL@ICPEPJAJ@?$DMSUCCESSED?5SCRIPTOR?5READ?$DO?5?$AA@`
`??_C@_0BL@LLKPOHJI@?$GAcopy?5constructor?5closure?8?$AA@`
`??_C@_0BL@NILFHHPC@?$GAvirtual?5displacement?5map?8?$AA@`
`??_C@_0BL@OOIGECAO@?4?4?19Data?1Shine?1MapInfo?4shn?$AA@`
`??_C@_0BM@BCIJHFA@FAILED?5?9?5IPBLOCK?5Chack?0?5IP?$DN?$AA@`
`??_C@_0BM@GCLHOBNP@Service?5start?$CIno?5parameter?$CJ?$AA@`
`??_C@_0BM@GOLKECGL@FORMAT?5DEFINNING?0?5EOF?5Come?4?$AA@`
`??_C@_0BM@KPHKNLHB@C?3?1data?1gamigo?9dwh?1current?1?$AA@`
`??_C@_0BM@LDKODKLH@?5Base?5Class?5Descriptor?5at?5?$CI?$AA@`
`??_C@_0BM@MDKLLAAF@?5?$CFs?0?5line?5?$CF04d?$CL?$CF04d?5byte?$CIs?$CJ?$AA@`
`??_C@_0BM@NHAPEOLG@CharacterTitleStateView?4shn?$AA@`
`??_C@_0BM@PGMCBJKG@?4?4?19Data?1Shine?1ItemInfo?4shn?$AA@`
`??_C@_0BM@PMGGMLDN@?$GAlocal?5static?5thread?5guard?8?$AA@`
`??_C@_0BN@BCACPKKO@fc_NC_DATA_REPORT_CANCEL_REQ?$AA@`
`??_C@_0BN@CKNJLHMB@?$GAplacement?5delete?$FL?$FN?5closure?8?$AA@`
`??_C@_0BN@DEGPLNFK@?$GAvector?5deleting?5destructor?8?$AA@`
`??_C@_0BN@EHDGOPHL@?$CKFAILED?5STOP?5LISTEN?5SOCKET?$CK?5?$AA@`
`??_C@_0BN@IMDCHIKM@?$GAscalar?5deleting?5destructor?8?$AA@`
`??_C@_0BN@KLCBBCKL@EXCEPTION_FLT_INEXACT_RESULT?$AA@`
`??_C@_0BN@LBLGDPIG@EXCEPTION_INT_DIVIDE_BY_ZERO?$AA@`
`??_C@_0BN@LFPFMEDL@?$GAvector?5destructor?5iterator?8?$AA@`
`??_C@_0BN@MECKDCOJ@?5Class?5Hierarchy?5Descriptor?8?$AA@`
`??_C@_0BN@OCKIIPAA@?$DMSESSION?5WORKER?5ALL?5STOPPED?$DO?$AA@`
`??_C@_0BN@PHPNMCML@EXCEPTION_FLT_DIVIDE_BY_ZERO?$AA@`
`??_C@_0BN@PLALHGAA@?$CKFAILED?5CREATE?5MAIN?5THREAD?$CK?5?$AA@`
`??_C@_0BO@DLLOIENN@EXCEPTION_ILLEGAL_INSTRUCTION?$AA@`
`??_C@_0BO@EILGEMII@DataServerInfo_AccountLog?4txt?$AA@`
`??_C@_0BO@FFNNKAOG@?$CFs?2?$CFs_?$CF04d?9?$CF02d?9?$CF02d?5?$CF02d?4txt?$AA@`
`??_C@_0BO@GJKCLCLP@EXCEPTION_INVALID_DISPOSITION?$AA@`
`??_C@_0BO@HCFALDFG@?4?4?1?4?4?19Data?1Shine?1MapInfo?4shn?$AA@`
`??_C@_0BO@IIFBODJE@Too?5many?5open?5files?5in?5system?$AA@`
`??_C@_0BO@MEBIBCFB@CSocket_IOCP?3?3Write?5dwSize?$DN?$CFd?$AA@`
`??_C@_0BO@NKBPKPBI@Non?9Authoritative?5Information?$AA@`
`??_C@_0BO@OBMKPJIG@?$GAdefault?5constructor?5closure?8?$AA@`
`??_C@_0BO@ONPAAOGI@Proxy?5Authentication?5Required?$AA@`
`??_C@_0BO@OPAKCBHD@?$CKFAILED?5START?5LISTEN?5SOCKET?$CK?5?$AA@`
`??_C@_0BO@PFGOCPJJ@?$GAvector?5constructor?5iterator?8?$AA@`
`??_C@_0BO@PKEOFMIH@?$DMIOCP?5WORKTHREAD?5?$CD?$CFd?5RUNNING?$DO?$AA@`
`??_C@_0BP@CBBOODOP@BinaryDataBox?$DMT?$DO?3?3bdb_ReadData?$AA@`
`??_C@_0BP@DPNAEKFM@?$DMSUCCESSED?5STOP?5LISTEN?5SOCKET?$DO?$AA@`
`??_C@_0BP@EAJCLJOD@?$CKFAILED?5SESSION?5MANAGER?5INIT?$CK?5?$AA@`
`??_C@_0BP@NDGHPOJN@?5?$CI0x?$CF08X?50x?$CF08X?50x?$CF08X?50x?$CF08X?$CJ?$AA@`
`??_C@_0BP@NMNHALMC@EXCEPTION_FLT_DENORMAL_OPERAND?$AA@`
`??_C@_0CA@CLJJFJPP@MiniHouseFurnitureObjEffect?4shn?$AA@`
`??_C@_0CA@CMEECJEN@?$HLCALL?5p_IPBlock_IsBlock?$CI?$DP?0?$DP?0?$DP?$CJ?$HN?$AA@`
`??_C@_0CA@GCEOPDGL@?$GAeh?5vector?5destructor?5iterator?8?$AA@`
`??_C@_0CA@HIDPIPJM@EXCEPTION?5?9?5DBGHELP?4DLL?5TOO?5OLD?$AA@`
`??_C@_0CA@JJDIIMDB@EXCEPTION_FLT_INVALID_OPERATION?$AA@`
`??_C@_0CA@JNIHFDGO@EXCEPTION_ARRAY_BOUNDS_EXCEEDED?$AA@`
`??_C@_0CA@KGJNFKJM@Requested?5range?5not?5satisfiable?$AA@`
`??_C@_0CA@LEJEDDLG@EXCEPTION_DATATYPE_MISALIGNMENT?$AA@`
`??_C@_0CB@EPFKGNAK@Resource?5temporarily?5unavailable@`
`??_C@_0CB@FIJDAEPM@Bad?5parameter?5to?5GetFaultReason?6@`
`??_C@_0CB@JONCMFFK@?$GAeh?5vector?5constructor?5iterator?8@`
`??_C@_0CB@JOPKHHLB@FILE?5OPEN?5ERROR?$CICode?5?$DN?5?$CFd?$CJ?5?9?5?$CFs?5@`
`??_C@_0CB@LPPGLBK@?$HLCALL?5p_SameTimeChar_Add?$CI?$DP?0?$DP?0?$DP?$CJ?$HN@`
`??_C@_0CB@NMOFGOOG@TOTAL?5Data?5?$CFd?5Defined?0?5?$CFd?5Errors@`
`??_C@_0CB@PDBIFEP@?$GAdynamic?5atexit?5destructor?5for?5?8@`
`??_C@_0CC@HJBJKBIO@?$CFd?9?$CF02d?9?$CF02dT?$CF02d?3?$CF02d?3?$CF02d?4?$CF03d@`
`??_C@_0CC@HLHCJGGB@?$DMSUCCESSED?5SESSION?5MANAGER?5INIT?$DO@`
`??_C@_0CC@NHLFCOON@EXCEPTION?5?9?5DBGHELP?4DLL?5NOT?5FOUN@`
`??_C@_0CC@PMPHPEGJ@?4?2DebugMessage?2ExecUpdateInfo?4tx@`
`??_C@_0CD@CGAJBKEJ@?$GAvector?5copy?5constructor?5iterato@`
`??_C@_0CD@ELMPFIAB@Include?5Data?5?$CFd?5Defined?0?5?$CFd?5Erro@`
`??_C@_0CD@FANEJBAE@TOTAL?5Format?5?$CFd?5Defined?0?5?$CFd?5Erro@`
`??_C@_0CD@JGPJMHJA@EXCEPTION_NONCONTINUABLE_EXCEPTI@`
`??_C@_0CE@IIHCMGGL@?$GAlocal?5vftable?5constructor?5closu@`
`??_C@_0CE@IKBNEHA@?$GAvector?5vbase?5constructor?5iterat@`
`??_C@_0CE@LDOCAIMN@EXCEPTION?5?9?5Saved?5dump?5file?5to?5?8@`
`??_C@_0CE@LIKLOAEN@INCLUDE?5OPEN?5ERROR?$CICode?5?$DN?5?$CFd?$CJ?5?9?5@`
`??_C@_0CE@MLMHBLIN@ERR_EVENT_L20_DB_SET_ERR?5?9?5?$LB?b?$LH?O?$LN@`
`??_C@_0CE@NHGNCOLG@?$HLCALL?5p_Event_L20_Get?$CI?$DP?0?$DP?0?$DP?0?$DP?0?$DP?0@`
`??_C@_0CE@NKAPCALI@CSocket_IOCP?3?3Write?5?$CF?$CDx?$CI?$CF?$CDx?$CJ?5err@`
`??_C@_0CE@ONOKNLPF@Inappropriate?5I?1O?5control?5operat@`
`??_C@_0CE@PCGGKFKI@?$HLCALL?5p_Event_L20_Set?$CI?$DP?0?$DP?0?$DP?0?$DP?0?$DP?0@`
`??_C@_0CF@DGLGIKKH@?$CK?5ACCEPT?5NO?5SESSION?5BUFFER?5?9?5ERR@`
`??_C@_0CF@FIEHKIAC@IOBufferContainer?3?3IOBufferConta@`
`??_C@_0CF@IMGKMJNO@?$GAmanaged?5vector?5destructor?5itera@`
`??_C@_0CF@IOFBPGJM@Include?5Format?5?$CFd?5Defined?0?5?$CFd?5Er@`
`??_C@_0CF@OOENEKEN@?$HLCALL?5p_Report_Add?$CI?$DP?0?$DP?0?$DP?0?$DP?0?$DP?0?$DP?0?$DP@`
`??_C@_0CG@CFDHKGGD@?$GAmanaged?5vector?5constructor?5iter@`
`??_C@_0CG@EHEEJAFD@CSQLPAccountLog?3?3p_IPBlock_IsBlo@`
`??_C@_0CG@GBJGAOOB@ERROR?5?9?5?$CFs?0?5SQLError?5?$DN?5?$CFd?5?$DN?5SQL_@`
`??_C@_0CG@HCCBBAMA@?$HLCALL?5usp_EventiPad_setTicket?$CI?$DP?0@`
`??_C@_0CG@HLDDJMAG@?$GAeh?5vector?5copy?5constructor?5iter@`
`??_C@_0CG@NPJOMGCC@?$CFs?5?3?5AssertClass?3?3ac_AssertFail?5@`
`??_C@_0CG@OAIDBMPB@?$DMNUMBER?5OF?5?$CFd?5SESSION?5WORKER?5STA@`
`??_C@_0CH@CPFAMLFN@PROTOCOLFUNCTIONTEMPLETE?$DMT?$DO?3?3pft@`
`??_C@_0CH@OOJPLCPH@?$GAeh?5vector?5vbase?5constructor?5ite@`
`??_C@_0CI@BGNFBKIB@?$HLCALL?5p_SameTimeCharClass_Add?$CI?$DP?0@`
`??_C@_0CI@BPPFHKGK@?$CK?5ACCEPT?5SOCKET?5IOCP?5REGISTER?5?9?5@`
`??_C@_0CJ@CJAPDIIC@?5?$CFd?0?5?$CFd?0?5?$CFd?0?5?$CFd?0?5?$CFd?0?5?$CFs?0?5?$CFs?0?5?$CFs?0@`
`??_C@_0CJ@EBHGAAHL@ERR_EVENT_L20_DB_SET_ERR?5?9?5?$LA?h?A?$KE?A@`
`??_C@_0CJ@GJELGAMM@?$GAvector?5vbase?5copy?5constructor?5i@`
`??_C@_0CJ@HLEMDJFH@?$DMI?5AM?5THE?5?$CFs?0?5?$CFs?0?5WorldNo?$DN?$CFd?0?5Zo@`
`??_C@_0CJ@JJELLPEF@CSQLPStatistics?3?3p_SameTimeCharC@`
`??_C@_0CJ@KGAEOHDP@CSocket_IOCP?3?3Write?0?5INVALID?5m_S@`
`??_C@_0CK@DOLJOHPM@?$HLCALL?5usp_Log_setLogout?$CI?$DP?0?$DP?0?$DP?0?$DP?0@`
`??_C@_0CK@EHDDFIJG@BinaryDataBox?$DMT?$DO?3?3bdb_ReadData?5?3@`
`??_C@_0CK@EPEFMEKL@?$CFs?5?3?5AssertClass?3?3ac_AssertFail?5@`
`??_C@_0CK@ICILKLIN@?$CFs?5?3?5AssertClass?3?3ac_AssertFail?5@`
`??_C@_0CL@FGIJHLCE@?$GAmanaged?5vector?5copy?5constructor@`
`??_C@_0CL@KNDDNKMO@?$CFs?5?9?5FORMAT?5DEFINING?0?5UNKNOWNED?5@`
`??_C@_0CL@MLFMKADN@?$HLCALL?5p_AccountLog_Add?$CI?$DP?0?$DP?0?$DP?0?$DP?0?$DP@`
`??_C@_0CL@PIMONFPI@?$CK?5NC_MISC_S2SCONNECTION_RDY?5?9?5SE@`
`??_C@_0CM@FCBBDIGB@?$GAeh?5vector?5vbase?5copy?5constructo@`
`??_C@_0CM@NNENOKLI@?$CKFAILED?5GLOBAL?5GAME?5DATA?5READ?5?9?5@`
`??_C@_0CM@PDMBDDND@CSocket_IOCP?3?3WriteCallback?5?$CF?$CDx?$CI@`
`??_C@_0CN@CBFMKPJH@GetFirstStackTraceString?5?9?5inval@`
`??_C@_0CN@OAIIFDP@MobDataBox?3?3ReadData?5?3?5memory?5le@`
`??_C@_0CN@PDFPCCLL@ItemDataBox?3?3operator?5?$FL?$FN?5?3Invali@`
`??_C@_0CO@IMOGFLNH@Send?5IOBuffer?5Full?3?3dwSize?$DN?$CFd?0?5B@`
`??_C@_0CP@CAGJHHAO@ERROR?5?9?5FAILED?5TO?5GET?5LISTEN?5SOC@`
`??_C@_0DB@KDOHDJCF@ERROR?5?9?5?$CFs?0?5SQLError?5?$DN?5?$CFd?5?$DN?5unkn@`
`??_C@_0DB@NLNMFJKA@?$HLCALL?5usp_AccountLog_GetDateDiff@`
`??_C@_0DC@OPDMBPAA@?$DMSESSION?5WORKER?5?$CD?$CFd?5INIT?5DB?5FAIL@`
`??_C@_0DE@IIDIKFNK@ERROR?5?9?5HEARTBEAT?5OVERTIME?0?5NOW?5@`
`??_C@_0DE@MAKADCI@DB_Init?5FAILED?0?5Scriptor?5BASE?5OD@`
`??_C@_0DF@PPHKOED@ERROR?5?9?5?$CFs?0?5state?5?$DN?5?$CFs?5error_num@`
`??_C@_0DG@EDBDPHDM@SERVER_CCU?5?$FLfiesta?$EAonson?5number?$DN@`
`??_C@_0DG@GLEAJFAM@?$DMSUCCSSED?5LISTEN?5AT?5IP?$DN?$CFs?0?5Port?$DN@`
`??_C@_0DG@LAMHKFGP@EXCEPTION?5?9?5Failed?5to?5Call?5Stack@`
`??_C@_0DH@FLHFNILL@ERROR?5?9?5Socket_Register_To_IOCP?5@`
`??_C@_0DH@IOPIDDP@ERROR?5?9?5Socket_Register_To_IOCP?5@`
`??_C@_0DH@LMCALDP@EXCEPTION?5?9?5Failed?5to?5create?5dum@`
`??_C@_0DI@GEKBMNFN@?$DMNUMBER?5OF?5?$CFd?5IOCP?5WORKTHREAD?5ST@`
`??_C@_0DI@KDOKPBAD@EXCEPTION?5?9?5Failed?5to?5save?5dump?5@`
`??_C@_0DI@OEOOCEKA@?9?9?9?9?9?9?9?9?9?9?9?9?9?9?9?9?9?9?9?9?9?9?9?9?9?9?9?9?9?9?9?9@`
`??_C@_0DM@MEMGGLEN@ERROR?5?9?5CSendPacket?3?3SetSize?$DN?$CFd?0@`
`??_C@_0DM@MJKPKPBM@ItemOptionsData?3?3OptionCardStack@`
`??_C@_0DO@JBFHEJBB@ItemOptionsData?3?3OptionCardStack@`
`??_C@_0EA@BPIGKOCD@?9?9?9?9?9?9?9?9?9?9?9?9?9?9?9?9?9?9?9?9?9?9?9?9?9?9?9?9?9?9?9?9@`
`??_C@_0EA@FCLIIPNN@Visual?5C?$CL?$CL?5CRT?3?5Not?5enough?5memor@`
`??_C@_0EA@KDGPLCOJ@PROTOCOLFUNCTIONTEMPLETE?$DMT?$DO?3?3pft@`
`??_C@_0EA@LLHCGPLF@ItemOptionsData?3?3OptionCardStack@`
`??_C@_0EB@GDIDOGAH@DB_Init?5FAILED?0?5Scriptor?5DB_ID_S@`
`??_C@_0ED@DFPNDFMK@Error?5?9?5CPFsAccountLog?3?3fc_NC_US@`
`??_C@_0ED@KCEBPLND@ACCOUNT_LOGOUT?5?$FLfiesta?$EAonson?5acc@`
`??_C@_0ED@MOPCNBCJ@ItemOptionsData?3?3OptionCardStack@`
`??_C@_0EF@BNOHOKLG@?A?$KC?$LM?S?$LF?G?$LO?n?5?$MA?V?$LE?B?5?$LM?$LM?$LM?G?$MA?N?$LF?$KF?0?5?$LG?G?5?A?$KC?$LM?S?$LP@`
`??_C@_0EF@IJIHJJCH@ItemOptionsData?3?3OptionCardStack@`
`??_C@_0EG@CHNGMDAI@SERVER?5WORK?5START?5?9?9?9?9?9?9?9?9?9?9?9?9?9?9@`
`??_C@_0EG@JEABEDGL@ERROR?5?9?5CSocket_IOCP?3?3Close?5?3?5re@`
`??_C@_0EH@NFJPPEBK@ERROR?5?9?5CSQLPAccountLog?3?3p_Set_E@`
`??_C@_0EH@PJLDCIAL@FATAL?5?9?5ERROR?0?5CSendPacket?3?3ID?0?5@`
`??_C@_0EJ@CPHAHLMI@ERROR?5?9?5?A?$KC?$LM?S?5?$LJ?L?$MA?N?A?u?5?$LL?s?E?B?$LP?$KB?$LM?$KN?5?F?P?E@`
`??_C@_0EJ@FBLBNCL@ERROR?5?9?5CSocket_IOCP?3?3Shutdown?5?3@`
`??_C@_0EL@OMPBMFED@?A?$KC?$LM?S?$LP?d?C?$LL?G?Q?5?$LA?p?$LP?$KB?$LM?$KN?5?$MA?$NP?$LI?x?$LF?H?5?E?$LA?$LA?$KK?$MA?L?5@`
`??_C@_0EM@HEEHCKCF@?9?9?9?9?9?9?9?9?9?9?9?9?9?9?9?9?9?9?9?9?9?9?9?9?9?9?9?9?9?9?9?9@`
`??_C@_0EM@PNJDMDCJ@ItemOptionsData?3?3OptionCardStack@`
`??_C@_0EN@CGGCHAAK@Connected?5from?5?$CFp?5?$CI?$CF?925s?5world?$DN?$CF@`
`??_C@_0EN@DAJDLIDM@ERROR?5?9?5CSocket_IOCP?3?3Receive?0?5m@`
`??_C@_0EN@FJCOGFLB@Connected?5to?5?5?5?$CFp?5?$CI?$CF?925s?5world?$DN?$CF@`
`??_C@_0EN@HFNMNKLP@ERROR?5?9?5Socket?5buffer?5full?0?5some@`
`??_C@_0EP@NPBPCBNI@ERROR?5?9?5CSQLPAccountLog?3?3p_Set_E@`
`??_C@_0EP@PEMBIHBB@WARNING?5?9?5CSocket_IOCP?3?3Send?0?5OV@`
`??_C@_0EP@PKCGGPMA@WARNING?5?9?5CSocket_IOCP?3?3Send?0?5OV@`
`??_C@_0FB@KDDEDKDG@?$DN?$DN?$DN?$DN?$DN?$DN?$DN?$DN?$DN?$DN?$DN?$DN?$DN?$DN?$DN?$DN?$DN?$DN?$DN?$DN?$DN?$DN?$DN?$DN?$DN?$DN?$DN?$DN?$DN?$DN?$DN?$DN@`
`??_C@_0FD@GFBPNPJP@CSocket_IOCP?3?3Read?0?5ERROR?$DN?$CFd?0?5m_@`
`??_C@_0FD@GGHPCDIK@ACCOUNT_LOGIN_FAILURE?5?$FLfiesta?$EAon@`
`??_C@_0FD@IGEAAHM@NC_MISC_S2SCONNECTION_REQ?5?$DMserve@`
`??_C@_0FD@LDNNKIPG@ACCOUNT_LOGIN_SUCCESS?5?$FLfiesta?$EAon@`
`??_C@_0FF@OBKFEEOA@?A?$KC?$LM?S?$LP?d?C?$LL?G?Q?5?$LM?$KN?$LJ?v?$MA?G?5?E?$LI?$MA?T?$LA?z?5?$LD?$KK?$MA?G?5?E?$LI@`
`??_C@_0FK@EHBMGGGA@ERROR?5?9?5CSQLPAccountLog?3?3p_Set_E@`
`??_C@_0FK@GDAOIKEC@ERROR?5?9?5fc_NC_MISC_EVENT_L20_DB_@`
`??_C@_0FN@EPLDGNCD@NC_MISC_S2SCONNECTION_REQ?5?$DMserve@`
`??_C@_0FO@EPNEAHOL@m_pFirstBuf?5?$DN?5NULL?5?9?5WriteCallba@`
`??_C@_0FO@GKJFJEKE@?F?P?E?$LG?5?$LP?$MA?$LH?y?5?H?$KO?$MA?N?5From?5?$CI?$CF25s?5world?$DN@`
`??_C@_0FO@JEPCHBNG@ERROR?5?9?5CSQLPAccountLog?3?3p_Set_E@`
`??_C@_0GB@MDOFGNOK@CProtocol_Functions?3?3fc_NC_MISC_@`
`??_C@_0GD@CMNLOACO@ERROR?5?9?5fc_NC_MISC_EVENT_L20_DB_@`
`??_C@_0GF@MGPPGCD@MISSMATCH?5?9?5WriteCallback?0?5dwTra@`
`??_C@_0GI@OOMFGCDI@?$CKWork?5failed?5?5?5?$CI?$CF?925s?5world?$DN?$CF3d?5@`
`??_C@_0GJ@DIBPEHKH@ERROR?5?9?5CPFsAccountLog?3?3fc_NC_US@`
`??_C@_0GM@BCLCGNMM@FATAL?5ERROR?5?9?5Can?8t?5found?5Server@`
`??_C@_0GM@KIKAJGFJ@Closed?5?5?5?5from?5?$CFp?5?$CI?$CF?925s?5world?$DN?$CF@`
`??_C@_0HA@BMIEGPJM@FATAL?5ERROR?5?9?5Can?8t?5found?5Server@`
`??_C@_0HB@IDLDCGGB@fc_dummyfunction?0?5Protocol?5?$DN?50x?$CF@`
`??_C@_0IK@DCMPHAAM@ERROR?5?9?5fc_NC_MISC_CHAR_LOGOFF_S@`
`??_C@_0L@BPNAKOCO@?$CF06d?5?$CFs?$CFs?6?$AA@`
`??_C@_0L@CDMKCEII@Riding?4shn?$AA@`
`??_C@_0L@DBLHBGFM@?$DMFILENAME?$DO?$AA@`
`??_C@_0L@DCIAPCEM@DB_GAMELOG?$AA@`
`??_C@_0L@DOLLOFEA@?$CDWRITEDATA?$AA@`
`??_C@_0L@EGNCBFBD@?$FLARRAYSRT?$FN?$AA@`
`??_C@_0L@EPBKNKII@ietf?9token?$AA@`
`??_C@_0L@FDPJCNGK@No?5Content?$AA@`
`??_C@_0L@FOPGKAID@DB_ACCOUNT?$AA@`
`??_C@_0L@GBGGBEMC@?$CDENDDEFINE?$AA@`
`??_C@_0L@GGLPAOMP@No?5Address?$AA@`
`??_C@_0L@GIIKNID@?$FLFILENAME?$FN?$AA@`
`??_C@_0L@HBONKOMM@?$DMARRAYSRT?$DO?$AA@`
`??_C@_0L@HNIBOLKB@ACCOUNTLOG?$AA@`
`??_C@_0L@IGGMJDE@?$CDCLEARDATA?$AA@`
`??_C@_0L@JIKEIHLJ@?$DMARRAYEND?$DO?$AA@`
`??_C@_0L@JMKHOMEK@__fastcall?$AA@`
`??_C@_0L@KDOEJCKC@_nextafter?$AA@`
`??_C@_0L@KPJLDMGG@?$FLARRAYEND?$FN?$AA@`
`??_C@_0L@MEPHBNGI@?$FLSHORTKEY?$FN?$AA@`
`??_C@_0L@NOLIFMGJ@?$CDREMARKEND?$AA@`
`??_C@_0L@NOMKIJMI@Gather?4shn?$AA@`
`??_C@_0L@NPHFGOKO@__thiscall?$AA@`
`??_C@_0L@PDMIKGLH@?$DMSHORTKEY?$DO?$AA@`
`??_C@_0L@PILCLIHE@__restrict?$AA@`
`??_C@_0M@BNCNLPGM@Bad?5Gateway?$AA@`
`??_C@_0M@CAINLIBO@MobInfo?4shn?$AA@`
`??_C@_0M@CEOOAFPO@?$CDREMARKLINE?$AA@`
`??_C@_0M@DLDCCGNP@MessageBoxW?$AA@`
`??_C@_0M@FBKAMCMN@MapInfo?4shn?$AA@`
`??_C@_0M@GDNOONDI@FlsGetValue?$AA@`
`??_C@_0M@GEOAHJHK@PupMain?4shn?$AA@`
`??_C@_0M@GFIIJFMG@__unaligned?$AA@`
`??_C@_0M@HBPLMJOG@Abstate?4shn?$AA@`
`??_C@_0M@IBNEFJCG@DBGHELP?4DLL?$AA@`
`??_C@_0M@IFLIHMFH@No?5Recovery?$AA@`
`??_C@_0M@JCPCPOEF@FlsSetValue?$AA@`
`??_C@_0M@LHEPIIOM@Broken?5pipe?$AA@`
`??_C@_0M@LNAIDEEG@Bad?5Request?$AA@`
`??_C@_0M@LOEHLCJD@Bad?5address?$AA@`
`??_C@_0M@NAAJNNGH@File?5exists?$AA@`
`??_C@_0M@NBJNHKNC@GTIView?4shn?$AA@`
`??_C@_0M@PCENNPGA@?$CFd?4?$CFd?4?$CFd?4?$CFd?$AA@`
`??_C@_0N@BDPOONKD@?$CFs?5?9?5READ?5OK?$AA@`
`??_C@_0N@BJJFNCHI@WORLDMANAGER?$AA@`
`??_C@_0N@DEAKEBCF@?$CF04d?$CF02d?$CF02d?$AA@`
`??_C@_0N@EGFCBFCN@?6In?5module?3?5?$AA@`
`??_C@_0N@FEHLOILP@Invalid?5seek?$AA@`
`??_C@_0N@HHKAONHC@?5caused?5an?3?5?$AA@`
`??_C@_0N@IFEFAIJB@Not?5Modified?$AA@`
`??_C@_0N@INKMAOCP@SERVER_ID_17?$AA@`
`??_C@_0N@JELHDPGO@SERVER_ID_16?$AA@`
`??_C@_0N@JKPPHGME@DB_CHARACTER?$AA@`
`??_C@_0N@JOBOMEGD@?$CDCLEARFORMAT?$AA@`
`??_C@_0N@KDEBCOA@SERVER_ID_18?$AA@`
`??_C@_0N@KGIBFNOM@SERVER_ID_14?$AA@`
`??_C@_0N@KPAMOPJA@?$CDREMARKSTART?$AA@`
`??_C@_0N@LPJKGMKN@SERVER_ID_15?$AA@`
`??_C@_0N@MMJPGLJK@Domain?5error?$AA@`
`??_C@_0N@NLPGKJKJ@SERVER_ID_11?$AA@`
`??_C@_0N@OFKCJNJF@ErrorCode?$DN?$CFd?$AA@`
`??_C@_0N@OHJFCCKP@?$CDWRITEFORMAT?$AA@`
`??_C@_0N@OJMAMLCL@SERVER_ID_13?$AA@`
`??_C@_0N@OOAPMOJA@Unauthorized?$AA@`
`??_C@_0N@PANLPKGK@SERVER_ID_12?$AA@`
`??_C@_0N@PEBAKMCM@ItemInfo?4shn?$AA@`
`??_C@_0O@BFFLKCLE@Reset?5Content?$AA@`
`??_C@_0O@CACLKIDB@SERVER_ID_WEB?$AA@`
`??_C@_0O@DPKOEFFH@bad?5exception?$AA@`
`??_C@_0O@EKKGMJHF@ChatColor?4shn?$AA@`
`??_C@_0O@EMBEJEGD@ClassName?4shn?$AA@`
`??_C@_0O@FIMJHPBM@Include?5?9?5?$CFs?5?$AA@`
`??_C@_0O@GFAPBMEE@?$CFs?5?9?5WRITE?5OK?$AA@`
`??_C@_0O@GOOEEGKD@MiniHouse?4shn?$AA@`
`??_C@_0O@HDCPHFN@CallStack?4txt?$AA@`
`??_C@_0O@JMFPNKKJ@?$DMIOCP?5CLOSED?$DO?$AA@`
`??_C@_0O@MJGLKPN@DB_ACCOUNTLOG?$AA@`
`??_C@_0O@NIPGCINC@Unknown?5error?$AA@`
`??_C@_0O@OAMDNOCP@Improper?5link?$AA@`
`??_C@_0O@PCMKFFLN@ItemMoney?4shn?$AA@`
`??_C@_0P@CAFMJNJH@Host?5not?5found?$AA@`
`??_C@_0P@ECHKDABI@SubAbstate?4shn?$AA@`
`??_C@_0P@ECMHENGD@SERVER_ID_ZONE?$AA@`
`??_C@_0P@GHFPNOJB@bad?5allocation?$AA@`
`??_C@_0P@HALPAPNN@ErrorCode?$DN?$CFd?$AN?6?$AA@`
`??_C@_0P@HHIDFAOI@Not?5Acceptable?$AA@`
`??_C@_0P@HJKNJFNN@?$GAomni?5callsig?8?$AA@`
`??_C@_0P@INFHONJD@?$CF06d?5?$CFs?5?$CFs?7?$CFs?6?$AA@`
`??_C@_0P@IOBGGBBB@?5?$CFs?0?5line?5?$CF04d?$AA@`
`??_C@_0P@KOONACNH@SingleData?4shn?$AA@`
`??_C@_0P@LFMMIPAE@File?5too?5large?$AA@`
`??_C@_0P@MCDGMPHH@?$CF04d?9?$CF02d?9?$CF02d?$AA@`
`??_C@_0P@MIGLKIOC@CorExitProcess?$AA@`
`??_C@_0P@NDHGCGKE@Is?5a?5directory?$AA@`
`??_C@_0P@NLEIANHE@No?5such?5device?$AA@`
`??_C@_0P@PKCJJLLM@Too?5many?5links?$AA@`
`??_C@_0P@PLMNPDMB@?$CF02d?3?$CF02d?3?$CF02d?$AA@`
`??_C@_15CLMNNGEL@?$AAP?$AAM?$AA?$AA@`
`??_C@_15IABLJNFO@?$AA?6?$AA?6?$AA?$AA@`
`??_C@_15JNBOKNOG@?$AA?$AN?$AA?6?$AA?$AA@`
`??_C@_15ODEHAHHF@?$AAA?$AAM?$AA?$AA@`
`??_C@_17BBDMLCIG@?$AAN?$AAo?$AAv?$AA?$AA@`
`??_C@_17BMKGEGOJ@?$AAT?$AAu?$AAe?$AA?$AA@`
`??_C@_17CJEDCEPE@?$AAW?$AAe?$AAd?$AA?$AA@`
`??_C@_17CKNLEDEC@?$AAM?$AAa?$AAr?$AA?$AA@`
`??_C@_17DKNBKCHM@?$AAJ?$AAa?$AAn?$AA?$AA@`
`??_C@_17EGKACKIF@?$AAD?$AAe?$AAc?$AA?$AA@`
`??_C@_17FNLKOI@?$AAO?$AAc?$AAt?$AA?$AA@`
`??_C@_17GGIBDPIH@?$AAS?$AAa?$AAt?$AA?$AA@`
`??_C@_17HCHCOKMG@?$AAS?$AAe?$AAp?$AA?$AA@`
`??_C@_17HFOLPPLP@?$AAF?$AAr?$AAi?$AA?$AA@`
`??_C@_17ICPELBCN@?$AAA?$AAu?$AAg?$AA?$AA@`
`??_C@_17IJPCKHK@?$AAJ?$AAu?$AAl?$AA?$AA@`
`??_C@_17KBOMKBF@?$AAM?$AAo?$AAn?$AA?$AA@`
`??_C@_17KCJGOCPB@?$AAJ?$AAu?$AAn?$AA?$AA@`
`??_C@_17LFPOIHDD@?$AAA?$AAp?$AAr?$AA?$AA@`
`??_C@_17LGKOMLJ@?$AA?4?$AA?4?$AA?4?$AA?$AA@`
`??_C@_17LMDJEKJN@?$AAF?$AAe?$AAb?$AA?$AA@`
`??_C@_17MBGCMIPB@?$AAS?$AAu?$AAn?$AA?$AA@`
`??_C@_17PDPHAADD@?$AAT?$AAh?$AAu?$AA?$AA@`
`??_C@_17PNNKMEED@?$AAM?$AAa?$AAy?$AA?$AA@`
`??_C@_19BIFMLPCD@?$AAJ?$AAu?$AAl?$AAy?$AA?$AA@`
`??_C@_19EPFLPGAP@?$AAJ?$AAu?$AAn?$AAe?$AA?$AA@`
`??_C@_1BA@BALFACEM@?$AAC?$AAO?$AAN?$AAO?$AAU?$AAT?$AA$?$AA?$AA@`
`??_C@_1BA@EFMEIEBA@?$AAJ?$AAa?$AAn?$AAu?$AAa?$AAr?$AAy?$AA?$AA@`
`??_C@_1BA@ENFBFFEK@?$AAT?$AAu?$AAe?$AAs?$AAd?$AAa?$AAy?$AA?$AA@`
`??_C@_1BA@EPANDLNG@?$AAO?$AAc?$AAt?$AAo?$AAb?$AAe?$AAr?$AA?$AA@`
`??_C@_1BC@BGLIFPF@?$AAN?$AAo?$AAv?$AAe?$AAm?$AAb?$AAe?$AAr?$AA?$AA@`
`??_C@_1BC@ENMNNPAJ@?$AAS?$AAa?$AAt?$AAu?$AAr?$AAd?$AAa?$AAy?$AA?$AA@`
`??_C@_1BC@FEMKIFH@?$AAD?$AAe?$AAc?$AAe?$AAm?$AAb?$AAe?$AAr?$AA?$AA@`
`??_C@_1BC@GDGBMEMK@?$AAH?$AAH?$AA?3?$AAm?$AAm?$AA?3?$AAs?$AAs?$AA?$AA@`
`??_C@_1BC@HHMNLIHE@?$AAT?$AAh?$AAu?$AAr?$AAs?$AAd?$AAa?$AAy?$AA?$AA@`
`??_C@_1BC@IEBCMHCM@?$AAM?$AAM?$AA?1?$AAd?$AAd?$AA?1?$AAy?$AAy?$AA?$AA@`
`??_C@_1BC@JGDDFFAM@?$AAF?$AAe?$AAb?$AAr?$AAu?$AAa?$AAr?$AAy?$AA?$AA@`
`??_C@_1BE@DKAAMBJL@?$AAS?$AAe?$AAp?$AAt?$AAe?$AAm?$AAb?$AAe?$AAr?$AA?$AA@`
`??_C@_1BE@EBOGMDOH@?$AAW?$AAe?$AAd?$AAn?$AAe?$AAs?$AAd?$AAa?$AAy?$AA?$AA@`
`??_C@_1BG@GOEBHBDC@?$AAU?$AAS?$AAE?$AAR?$AA3?$AA2?$AA?4?$AAD?$AAL?$AAL?$AA?$AA@`
`??_C@_1BI@BGOHAHKC@?$AAm?$AAs?$AAc?$AAo?$AAr?$AAe?$AAe?$AA?4?$AAd?$AAl?$AAl?$AA?$AA@`
`??_C@_1BK@DBDEIDLH@?$AAK?$AAE?$AAR?$AAN?$AAE?$AAL?$AA3?$AA2?$AA?4?$AAD?$AAL?$AAL?$AA?$AA@`
`??_C@_1BK@KMOMNAAI@?$AAS?$AAI?$AAN?$AAG?$AA?5?$AAe?$AAr?$AAr?$AAo?$AAr?$AA?$AN?$AA?6?$AA?$AA@`
`??_C@_1BM@JBBEPPHI@?$AAT?$AAL?$AAO?$AAS?$AAS?$AA?5?$AAe?$AAr?$AAr?$AAo?$AAr?$AA?$AN?$AA?6?$AA?$AA@`
`??_C@_1BO@BFCDCGC@?$AAD?$AAO?$AAM?$AAA?$AAI?$AAN?$AA?5?$AAe?$AAr?$AAr?$AAo?$AAr?$AA?$AN?$AA?6?$AA?$AA@`
`??_C@_1BO@BKOMIGKJ@?$AAr?$AAu?$AAn?$AAt?$AAi?$AAm?$AAe?$AA?5?$AAe?$AAr?$AAr?$AAo?$AAr?$AA?5?$AA?$AA@`
`??_C@_1BOO@KGEDBGAJ@?$AAR?$AA6?$AA0?$AA3?$AA3?$AA?$AN?$AA?6?$AA?9?$AA?5?$AAA?$AAt?$AAt?$AAe?$AAm?$AAp?$AAt?$AA?5?$AAt?$AAo?$AA?5?$AAu?$AAs?$AAe?$AA?5?$AAM?$AAS?$AAI?$AAL?$AA?5?$AAc?$AAo?$AAd@`
`??_C@_1CI@KNAKOEBC@?$AAd?$AAd?$AAd?$AAd?$AA?0?$AA?5?$AAM?$AAM?$AAM?$AAM?$AA?5?$AAd?$AAd?$AA?0?$AA?5?$AAy?$AAy?$AAy?$AAy?$AA?$AA@`
`??_C@_1CO@EAEJAADC@?$AA?$DM?$AAp?$AAr?$AAo?$AAg?$AAr?$AAa?$AAm?$AA?5?$AAn?$AAa?$AAm?$AAe?$AA?5?$AAu?$AAn?$AAk?$AAn?$AAo?$AAw?$AAn?$AA?$DO?$AA?$AA@`
`??_C@_1DE@JNGNBFGO@?$AAR?$AAu?$AAn?$AAt?$AAi?$AAm?$AAe?$AA?5?$AAE?$AAr?$AAr?$AAo?$AAr?$AA?$CB?$AA?6?$AA?6?$AAP?$AAr?$AAo?$AAg?$AAr?$AAa?$AAm?$AA?3?$AA?5?$AA?$AA@`
`??_C@_1DO@BMFCDCD@?$AAR?$AA6?$AA0?$AA3?$AA0?$AA?$AN?$AA?6?$AA?9?$AA?5?$AAC?$AAR?$AAT?$AA?5?$AAn?$AAo?$AAt?$AA?5?$AAi?$AAn?$AAi?$AAt?$AAi?$AAa?$AAl?$AAi?$AAz?$AAe?$AAd?$AA?$AN?$AA?6?$AA?$AA@`
`??_C@_1EC@JIBHAOPH@?$AAR?$AA6?$AA0?$AA1?$AA8?$AA?$AN?$AA?6?$AA?9?$AA?5?$AAu?$AAn?$AAe?$AAx?$AAp?$AAe?$AAc?$AAt?$AAe?$AAd?$AA?5?$AAh?$AAe?$AAa?$AAp?$AA?5?$AAe?$AAr?$AAr?$AAo?$AAr?$AA?$AN?$AA?6@`
`??_C@_1EG@BEHAGFJD@?$AAR?$AA6?$AA0?$AA1?$AA0?$AA?$AN?$AA?6?$AA?9?$AA?5?$AAa?$AAb?$AAo?$AAr?$AAt?$AA?$CI?$AA?$CJ?$AA?5?$AAh?$AAa?$AAs?$AA?5?$AAb?$AAe?$AAe?$AAn?$AA?5?$AAc?$AAa?$AAl?$AAl?$AAe?$AAd@`
`??_C@_1EK@HHFLMAOL@?$AAR?$AA6?$AA0?$AA2?$AA8?$AA?$AN?$AA?6?$AA?9?$AA?5?$AAu?$AAn?$AAa?$AAb?$AAl?$AAe?$AA?5?$AAt?$AAo?$AA?5?$AAi?$AAn?$AAi?$AAt?$AAi?$AAa?$AAl?$AAi?$AAz?$AAe?$AA?5?$AAh?$AAe@`
`??_C@_1EK@MBDPDCGA@?$AAM?$AAi?$AAc?$AAr?$AAo?$AAs?$AAo?$AAf?$AAt?$AA?5?$AAV?$AAi?$AAs?$AAu?$AAa?$AAl?$AA?5?$AAC?$AA?$CL?$AA?$CL?$AA?5?$AAR?$AAu?$AAn?$AAt?$AAi?$AAm?$AAe?$AA?5?$AAL?$AAi?$AAb@`
`??_C@_1EM@MAADIHMB@?$AAR?$AA6?$AA0?$AA2?$AA5?$AA?$AN?$AA?6?$AA?9?$AA?5?$AAp?$AAu?$AAr?$AAe?$AA?5?$AAv?$AAi?$AAr?$AAt?$AAu?$AAa?$AAl?$AA?5?$AAf?$AAu?$AAn?$AAc?$AAt?$AAi?$AAo?$AAn?$AA?5?$AAc@`
`??_C@_1FC@ECHBIFBC@?$AAR?$AA6?$AA0?$AA1?$AA9?$AA?$AN?$AA?6?$AA?9?$AA?5?$AAu?$AAn?$AAa?$AAb?$AAl?$AAe?$AA?5?$AAt?$AAo?$AA?5?$AAo?$AAp?$AAe?$AAn?$AA?5?$AAc?$AAo?$AAn?$AAs?$AAo?$AAl?$AAe?$AA?5@`
`??_C@_1FE@LLNEDJMD@?$AAR?$AA6?$AA0?$AA0?$AA8?$AA?$AN?$AA?6?$AA?9?$AA?5?$AAn?$AAo?$AAt?$AA?5?$AAe?$AAn?$AAo?$AAu?$AAg?$AAh?$AA?5?$AAs?$AAp?$AAa?$AAc?$AAe?$AA?5?$AAf?$AAo?$AAr?$AA?5?$AAa?$AAr@`
`??_C@_1FI@HONFMGBI@?$AAR?$AA6?$AA0?$AA0?$AA9?$AA?$AN?$AA?6?$AA?9?$AA?5?$AAn?$AAo?$AAt?$AA?5?$AAe?$AAn?$AAo?$AAu?$AAg?$AAh?$AA?5?$AAs?$AAp?$AAa?$AAc?$AAe?$AA?5?$AAf?$AAo?$AAr?$AA?5?$AAe?$AAn@`
`??_C@_1FI@LOGNIKDM@?$AAR?$AA6?$AA0?$AA1?$AA6?$AA?$AN?$AA?6?$AA?9?$AA?5?$AAn?$AAo?$AAt?$AA?5?$AAe?$AAn?$AAo?$AAu?$AAg?$AAh?$AA?5?$AAs?$AAp?$AAa?$AAc?$AAe?$AA?5?$AAf?$AAo?$AAr?$AA?5?$AAt?$AAh@`
`??_C@_1FK@BEOGODMC@?$AAR?$AA6?$AA0?$AA1?$AA7?$AA?$AN?$AA?6?$AA?9?$AA?5?$AAu?$AAn?$AAe?$AAx?$AAp?$AAe?$AAc?$AAt?$AAe?$AAd?$AA?5?$AAm?$AAu?$AAl?$AAt?$AAi?$AAt?$AAh?$AAr?$AAe?$AAa?$AAd?$AA?5@`
`??_C@_1FK@PGACCAFB@?$AAR?$AA6?$AA0?$AA0?$AA2?$AA?$AN?$AA?6?$AA?9?$AA?5?$AAf?$AAl?$AAo?$AAa?$AAt?$AAi?$AAn?$AAg?$AA?5?$AAp?$AAo?$AAi?$AAn?$AAt?$AA?5?$AAs?$AAu?$AAp?$AAp?$AAo?$AAr?$AAt?$AA?5@`
`??_C@_1GG@GOPILAJP@?$AAR?$AA6?$AA0?$AA3?$AA2?$AA?$AN?$AA?6?$AA?9?$AA?5?$AAn?$AAo?$AAt?$AA?5?$AAe?$AAn?$AAo?$AAu?$AAg?$AAh?$AA?5?$AAs?$AAp?$AAa?$AAc?$AAe?$AA?5?$AAf?$AAo?$AAr?$AA?5?$AAl?$AAo@`
`??_C@_1GK@FHCKBEFA@?$AAR?$AA6?$AA0?$AA2?$AA4?$AA?$AN?$AA?6?$AA?9?$AA?5?$AAn?$AAo?$AAt?$AA?5?$AAe?$AAn?$AAo?$AAu?$AAg?$AAh?$AA?5?$AAs?$AAp?$AAa?$AAc?$AAe?$AA?5?$AAf?$AAo?$AAr?$AA?5?$AA_?$AAo@`
`??_C@_1GK@MCAAGJMO@?$AAR?$AA6?$AA0?$AA2?$AA6?$AA?$AN?$AA?6?$AA?9?$AA?5?$AAn?$AAo?$AAt?$AA?5?$AAe?$AAn?$AAo?$AAu?$AAg?$AAh?$AA?5?$AAs?$AAp?$AAa?$AAc?$AAe?$AA?5?$AAf?$AAo?$AAr?$AA?5?$AAs?$AAt@`
`??_C@_1GK@MFGOKLAG@?$AAR?$AA6?$AA0?$AA2?$AA7?$AA?$AN?$AA?6?$AA?9?$AA?5?$AAn?$AAo?$AAt?$AA?5?$AAe?$AAn?$AAo?$AAu?$AAg?$AAh?$AA?5?$AAs?$AAp?$AAa?$AAc?$AAe?$AA?5?$AAf?$AAo?$AAr?$AA?5?$AAl?$AAo@`
`??_C@_1M@GJNLMHFD@?$AAA?$AAp?$AAr?$AAi?$AAl?$AA?$AA@`
`??_C@_1M@IKEENEDF@?$AAM?$AAa?$AAr?$AAc?$AAh?$AA?$AA@`
`??_C@_1MG@ENCOOIDF@?$AAR?$AA6?$AA0?$AA3?$AA1?$AA?$AN?$AA?6?$AA?9?$AA?5?$AAA?$AAt?$AAt?$AAe?$AAm?$AAp?$AAt?$AA?5?$AAt?$AAo?$AA?5?$AAi?$AAn?$AAi?$AAt?$AAi?$AAa?$AAl?$AAi?$AAz?$AAe?$AA?5?$AAt@`
`??_C@_1O@CEDCILHN@?$AA?$CI?$AAn?$AAu?$AAl?$AAl?$AA?$CJ?$AA?$AA@`
`??_C@_1O@IHNHDHPB@?$AAS?$AAu?$AAn?$AAd?$AAa?$AAy?$AA?$AA@`
`??_C@_1O@MMNBFLIA@?$AAM?$AAo?$AAn?$AAd?$AAa?$AAy?$AA?$AA@`
`??_C@_1O@PAHLKOAC@?$AAA?$AAu?$AAg?$AAu?$AAs?$AAt?$AA?$AA@`
`??_C@_1O@PDICJHAG@?$AAF?$AAr?$AAi?$AAd?$AAa?$AAy?$AA?$AA@`
`??_E?$BinaryDataBox@UFriendPointReward@@@@UAEPAXI@Z`
`??_E?$BinaryDataBox@UGradeItemOption@@@@UAEPAXI@Z`
`??_E?$BinaryDataBox@UItemDropLog@@@@UAEPAXI@Z`
`??_E?$BinaryDataBox@UItemInfo@@@@UAEPAXI@Z`
`??_E?$BinaryDataBox@UItemInfoServer@@@@UAEPAXI@Z`
`??_E?$BinaryDataBox@UItemInvenDel@@@@UAEPAXI@Z`
`??_E?$BinaryDataBox@UItemMoney@@@@UAEPAXI@Z`
`??_E?$BinaryDataBox@UItemOptions@@@@UAEPAXI@Z`
`??_E?$BinaryDataBox@UItemSort@@@@UAEPAXI@Z`
`??_E?$BinaryDataBox@UMapInfo@@@@UAEPAXI@Z`
`??_E?$BinaryDataBox@UShineReward@@@@UAEPAXI@Z`
`??_E?$List@UCard@CardDeck@@@@UAEPAXI@Z`
`??_E?$PROTOCOLFUNCTIONTEMPLETE@P8CPFs@@AEHPAUNETPACKET@@H@Z@@UAEPAXI@Z`
`??_EBinaryData@@UAEPAXI@Z`
`??_ECDataReader@@UAEPAXI@Z`
`??_ECIOBuffer@@UAEPAXI@Z`
`??_ECIOCP_Process_Interfece@@UAEPAXI@Z`
`??_ECIOCP_Process_Manager@@UAEPAXI@Z`
`??_ECIOCP_Process_Manager_App@@UAEPAXI@Z`
`??_ECIOCP_Process_Socket@@UAEPAXI@Z`
`??_ECIOCP_Process_Socket_Session@@UAEPAXI@Z`
`??_ECItemAuthorityBase@@UAEPAXI@Z`
`??_ECMD5Checksum@@MAEPAXI@Z`
`??_ECSQLPReport@@UAEPAXI@Z`
`??_ECSession@@UAEPAXI@Z`
`??_ECSessionWorker@@UAEPAXI@Z`
`??_ECSocket_Session@@UAEPAXI@Z`
`??_EDBRecord@@UAEPAXI@Z`
`??_EDatabase@@UAEPAXI@Z`
`??_EFPRewardData@@UAEPAXI@Z`
`??_EItemAttrCls_ActionItem@@UAEPAXI@Z`
`??_EItemAttrCls_ActiveSkill@@UAEPAXI@Z`
`??_EItemAttrCls_Amount@@UAEPAXI@Z`
`??_EItemAttrCls_Amulet@@UAEPAXI@Z`
`??_EItemAttrCls_Armor@@UAEPAXI@Z`
`??_EItemAttrCls_BindItem@@UAEPAXI@Z`
`??_EItemAttrCls_Boot@@UAEPAXI@Z`
`??_EItemAttrCls_Bracelet@@UAEPAXI@Z`
`??_EItemAttrCls_ByteLot@@UAEPAXI@Z`
`??_EItemAttrCls_Capsule@@UAEPAXI@Z`
`??_EItemAttrCls_CardCollect@@UAEPAXI@Z`
`??_EItemAttrCls_CardCollect_Close@@UAEPAXI@Z`
`??_EItemAttrCls_CostumShield@@UAEPAXI@Z`
`??_EItemAttrCls_CostumWeapon@@UAEPAXI@Z`
`??_EItemAttrCls_Decoration@@UAEPAXI@Z`
`??_EItemAttrCls_DwrdLot@@UAEPAXI@Z`
`??_EItemAttrCls_Enchant@@UAEPAXI@Z`
`??_EItemAttrCls_Feed@@UAEPAXI@Z`
`??_EItemAttrCls_Furniture@@UAEPAXI@Z`
`??_EItemAttrCls_GBCoin@@UAEPAXI@Z`
`??_EItemAttrCls_ItemChest@@UAEPAXI@Z`
`??_EItemAttrCls_KQStep@@UAEPAXI@Z`
`??_EItemAttrCls_KingdomQuestItem@@UAEPAXI@Z`
`??_EItemAttrCls_MiniHouseSkin@@UAEPAXI@Z`
`??_EItemAttrCls_NoEffect@@UAEPAXI@Z`
`??_EItemAttrCls_Pet@@UAEPAXI@Z`
`??_EItemAttrCls_QuestLot@@UAEPAXI@Z`
`??_EItemAttrCls_RecallScroll@@UAEPAXI@Z`
`??_EItemAttrCls_Riding@@UAEPAXI@Z`
`??_EItemAttrCls_Shield@@UAEPAXI@Z`
`??_EItemAttrCls_SkillScroll@@UAEPAXI@Z`
`??_EItemAttrCls_UpSource@@UAEPAXI@Z`
`??_EItemAttrCls_UpgradeBlueGem@@UAEPAXI@Z`
`??_EItemAttrCls_UpgradeGoldGem@@UAEPAXI@Z`
`??_EItemAttrCls_UpgradeRedGem@@UAEPAXI@Z`
`??_EItemAttrCls_Weapon@@UAEPAXI@Z`
`??_EItemAttrCls_WeaponTitlaLicence@@UAEPAXI@Z`
`??_EItemAttrCls_WordLot@@UAEPAXI@Z`
`??_EItemAttributeClass@@UAEPAXI@Z`
`??_EItemBelongAttribute@@UAEPAXI@Z`
`??_EItemOptionsData@@UAEPAXI@Z`
`??_ERewardData@@UAEPAXI@Z`
`??_EString@@UAEPAXI@Z`
`??_EWinService@@UAEPAXI@Z`
`??_E_Generic_error_category@std@@UAEPAXI@Z`
`??_E_Iostream_error_category@std@@UAEPAXI@Z`
`??_E_System_error_category@std@@UAEPAXI@Z`
`??_Ebad_alloc@std@@UAEPAXI@Z`
`??_Ebad_exception@std@@UAEPAXI@Z`
`??_Eerror_category@std@@UAEPAXI@Z`
`??_Eexception@std@@UAEPAXI@Z`
`??_Elength_error@std@@UAEPAXI@Z`
`??_Elogic_error@std@@UAEPAXI@Z`
`??_Eout_of_range@std@@UAEPAXI@Z`
`??_Etype_info@@UAEPAXI@Z`
`??_G?$BinaryDataBox@UFriendPointReward@@@@UAEPAXI@Z`
`??_G?$BinaryDataBox@UGradeItemOption@@@@UAEPAXI@Z`
`??_G?$BinaryDataBox@UItemDropLog@@@@UAEPAXI@Z`
`??_G?$BinaryDataBox@UItemInfo@@@@UAEPAXI@Z`
`??_G?$BinaryDataBox@UItemInfoServer@@@@UAEPAXI@Z`
`??_G?$BinaryDataBox@UItemInvenDel@@@@UAEPAXI@Z`
`??_G?$BinaryDataBox@UItemMoney@@@@UAEPAXI@Z`
`??_G?$BinaryDataBox@UItemOptions@@@@UAEPAXI@Z`
`??_G?$BinaryDataBox@UItemSort@@@@UAEPAXI@Z`
`??_G?$BinaryDataBox@UMapInfo@@@@UAEPAXI@Z`
`??_G?$BinaryDataBox@UShineReward@@@@UAEPAXI@Z`
`??_G?$List@UCard@CardDeck@@@@UAEPAXI@Z`
`??_G?$PROTOCOLFUNCTIONTEMPLETE@P8CPFs@@AEHPAUNETPACKET@@H@Z@@UAEPAXI@Z`
`??_GBinaryData@@UAEPAXI@Z`
`??_GCDataReader@@UAEPAXI@Z`
`??_GCIOBuffer@@UAEPAXI@Z`
`??_GCIOCP_Process_Interfece@@UAEPAXI@Z`
`??_GCIOCP_Process_Manager@@UAEPAXI@Z`
`??_GCIOCP_Process_Manager_App@@UAEPAXI@Z`
`??_GCIOCP_Process_Socket@@UAEPAXI@Z`
`??_GCIOCP_Process_Socket_Session@@UAEPAXI@Z`
`??_GCItemAuthorityBase@@UAEPAXI@Z`
`??_GCMD5Checksum@@MAEPAXI@Z`
`??_GCSQLPReport@@UAEPAXI@Z`
`??_GCSession@@UAEPAXI@Z`
`??_GCSessionWorker@@UAEPAXI@Z`
`??_GCSocket_Session@@UAEPAXI@Z`
`??_GDBRecord@@UAEPAXI@Z`
`??_GDatabase@@UAEPAXI@Z`
`??_GFPRewardData@@UAEPAXI@Z`
`??_GItemAttrCls_ActionItem@@UAEPAXI@Z`
`??_GItemAttrCls_ActiveSkill@@UAEPAXI@Z`
`??_GItemAttrCls_Amount@@UAEPAXI@Z`
`??_GItemAttrCls_Amulet@@UAEPAXI@Z`
`??_GItemAttrCls_Armor@@UAEPAXI@Z`
`??_GItemAttrCls_BindItem@@UAEPAXI@Z`
`??_GItemAttrCls_Boot@@UAEPAXI@Z`
`??_GItemAttrCls_Bracelet@@UAEPAXI@Z`
`??_GItemAttrCls_ByteLot@@UAEPAXI@Z`
`??_GItemAttrCls_Capsule@@UAEPAXI@Z`
`??_GItemAttrCls_CardCollect@@UAEPAXI@Z`
`??_GItemAttrCls_CardCollect_Close@@UAEPAXI@Z`
`??_GItemAttrCls_CostumShield@@UAEPAXI@Z`
`??_GItemAttrCls_CostumWeapon@@UAEPAXI@Z`
`??_GItemAttrCls_Decoration@@UAEPAXI@Z`
`??_GItemAttrCls_DwrdLot@@UAEPAXI@Z`
`??_GItemAttrCls_Enchant@@UAEPAXI@Z`
`??_GItemAttrCls_Feed@@UAEPAXI@Z`
`??_GItemAttrCls_Furniture@@UAEPAXI@Z`
`??_GItemAttrCls_GBCoin@@UAEPAXI@Z`
`??_GItemAttrCls_ItemChest@@UAEPAXI@Z`
`??_GItemAttrCls_KQStep@@UAEPAXI@Z`
`??_GItemAttrCls_KingdomQuestItem@@UAEPAXI@Z`
`??_GItemAttrCls_MiniHouseSkin@@UAEPAXI@Z`
`??_GItemAttrCls_NoEffect@@UAEPAXI@Z`
`??_GItemAttrCls_Pet@@UAEPAXI@Z`
`??_GItemAttrCls_QuestLot@@UAEPAXI@Z`
`??_GItemAttrCls_RecallScroll@@UAEPAXI@Z`
`??_GItemAttrCls_Riding@@UAEPAXI@Z`
`??_GItemAttrCls_Shield@@UAEPAXI@Z`
`??_GItemAttrCls_SkillScroll@@UAEPAXI@Z`
`??_GItemAttrCls_UpSource@@UAEPAXI@Z`
`??_GItemAttrCls_UpgradeBlueGem@@UAEPAXI@Z`
`??_GItemAttrCls_UpgradeGoldGem@@UAEPAXI@Z`
`??_GItemAttrCls_UpgradeRedGem@@UAEPAXI@Z`
`??_GItemAttrCls_Weapon@@UAEPAXI@Z`
`??_GItemAttrCls_WeaponTitlaLicence@@UAEPAXI@Z`
`??_GItemAttrCls_WordLot@@UAEPAXI@Z`
`??_GItemAttributeClass@@UAEPAXI@Z`
`??_GItemBelongAttribute@@UAEPAXI@Z`
`??_GItemOptionsData@@UAEPAXI@Z`
`??_GRewardData@@UAEPAXI@Z`
`??_GString@@UAEPAXI@Z`
`??_GWinService@@UAEPAXI@Z`
`??_G_Generic_error_category@std@@UAEPAXI@Z`
`??_G_Iostream_error_category@std@@UAEPAXI@Z`
`??_G_System_error_category@std@@UAEPAXI@Z`
`??_Gbad_alloc@std@@UAEPAXI@Z`
`??_Gbad_exception@std@@UAEPAXI@Z`
`??_Gerror_category@std@@UAEPAXI@Z`
`??_Gexception@std@@UAEPAXI@Z`
`??_Glength_error@std@@UAEPAXI@Z`
`??_Glogic_error@std@@UAEPAXI@Z`
`??_Gout_of_range@std@@UAEPAXI@Z`
`??_Gtype_info@@UAEPAXI@Z`
`??_L@YGXPAXIHP6EX0@Z1@Z`
`??_M@YGXPAXIHP6EX0@Z@Z`
`??_R0?AV?$BinaryDataBox@UFriendPointReward@@@@@8`
`??_R0?AV?$BinaryDataBox@UGradeItemOption@@@@@8`
`??_R0?AV?$BinaryDataBox@UItemDropLog@@@@@8`
`??_R0?AV?$BinaryDataBox@UItemInfo@@@@@8`
`??_R0?AV?$BinaryDataBox@UItemInfoServer@@@@@8`
`??_R0?AV?$BinaryDataBox@UItemInvenDel@@@@@8`
`??_R0?AV?$BinaryDataBox@UItemMoney@@@@@8`
`??_R0?AV?$BinaryDataBox@UItemOptions@@@@@8`
`??_R0?AV?$BinaryDataBox@UItemSort@@@@@8`
`??_R0?AV?$BinaryDataBox@UMapInfo@@@@@8`
`??_R0?AV?$BinaryDataBox@UShineReward@@@@@8`
`??_R0?AV?$List@UCard@CardDeck@@@@@8`
`??_R0?AV?$ListEraser@UCard@CardDeck@@@@@8`
`??_R0?AV?$ListIteratorDefault@UCard@CardDeck@@@@@8`
`??_R0?AV?$PROTOCOLFUNCTIONTEMPLETE@P8CPFs@@AEHPAUNETPACKET@@H@Z@@@8`
`??_R0?AV?$Singleton@VWinService@@@@@8`
`??_R0?AVBinaryData@@@8`
`??_R0?AVCDataReader@@@8`
`??_R0?AVCIOBuffer@@@8`
`??_R0?AVCIOCP_Process_Interfece@@@8`
`??_R0?AVCIOCP_Process_Manager@@@8`
`??_R0?AVCIOCP_Process_Manager_App@@@8`
`??_R0?AVCIOCP_Process_Socket@@@8`
`??_R0?AVCIOCP_Process_Socket_Session@@@8`
`??_R0?AVCItemAuthorityBase@@@8`
`??_R0?AVCMD5Checksum@@@8`
`??_R0?AVCPacket@@@8`
`??_R0?AVCPacket_Parser_Interface@@@8`
`??_R0?AVCPacket_Parser_Socket_Session@@@8`
`??_R0?AVCParser@@@8`
`??_R0?AVCParserAccountLog@@@8`
`??_R0?AVCSQLPReport@@@8`
`??_R0?AVCSession@@@8`
`??_R0?AVCSessionWorker@@@8`
`??_R0?AVCSession_Manager@@@8`
`??_R0?AVCSocket_Acceptor_Process_Interface@@@8`
`??_R0?AVCSocket_Acceptor_Process_Manager@@@8`
`??_R0?AVCSocket_Acceptor_Process_Manager_App@@@8`
`??_R0?AVCSocket_Session@@@8`
`??_R0?AVCSocket_Session_Manager@@@8`
`??_R0?AVDBRecord@@@8`
`??_R0?AVDatabase@@@8`
`??_R0?AVFPRewardData@@@8`
`??_R0?AVItemAttrCls_ActionItem@@@8`
`??_R0?AVItemAttrCls_ActiveSkill@@@8`
`??_R0?AVItemAttrCls_Amount@@@8`
`??_R0?AVItemAttrCls_Amulet@@@8`
`??_R0?AVItemAttrCls_Armor@@@8`
`??_R0?AVItemAttrCls_BindItem@@@8`
`??_R0?AVItemAttrCls_Boot@@@8`
`??_R0?AVItemAttrCls_Bracelet@@@8`
`??_R0?AVItemAttrCls_ByteLot@@@8`
`??_R0?AVItemAttrCls_Capsule@@@8`
`??_R0?AVItemAttrCls_CardCollect@@@8`
`??_R0?AVItemAttrCls_CardCollect_Close@@@8`
`??_R0?AVItemAttrCls_CostumShield@@@8`
`??_R0?AVItemAttrCls_CostumWeapon@@@8`
`??_R0?AVItemAttrCls_Decoration@@@8`
`??_R0?AVItemAttrCls_DwrdLot@@@8`
`??_R0?AVItemAttrCls_Enchant@@@8`
`??_R0?AVItemAttrCls_Feed@@@8`
`??_R0?AVItemAttrCls_Furniture@@@8`
`??_R0?AVItemAttrCls_GBCoin@@@8`
`??_R0?AVItemAttrCls_ItemChest@@@8`
`??_R0?AVItemAttrCls_KQStep@@@8`
`??_R0?AVItemAttrCls_KingdomQuestItem@@@8`
`??_R0?AVItemAttrCls_MiniHouseSkin@@@8`
`??_R0?AVItemAttrCls_NoEffect@@@8`
`??_R0?AVItemAttrCls_NotLot@@@8`
`??_R0?AVItemAttrCls_Pet@@@8`
`??_R0?AVItemAttrCls_QuestLot@@@8`
`??_R0?AVItemAttrCls_RecallScroll@@@8`
`??_R0?AVItemAttrCls_Riding@@@8`
`??_R0?AVItemAttrCls_Shield@@@8`
`??_R0?AVItemAttrCls_SkillScroll@@@8`
`??_R0?AVItemAttrCls_UpSource@@@8`
`??_R0?AVItemAttrCls_UpgradeBlueGem@@@8`
`??_R0?AVItemAttrCls_UpgradeGoldGem@@@8`
`??_R0?AVItemAttrCls_UpgradeRedGem@@@8`
`??_R0?AVItemAttrCls_Weapon@@@8`
`??_R0?AVItemAttrCls_WeaponTitlaLicence@@@8`
`??_R0?AVItemAttrCls_WordLot@@@8`
`??_R0?AVItemAttributeClass@@@8`
`??_R0?AVItemBelongAttribute@@@8`
`??_R0?AVItemOptionsData@@@8`
`??_R0?AVRewardData@@@8`
`??_R0?AVString@@@8`
`??_R0?AVWinService@@@8`
`??_R0?AV_Generic_error_category@std@@@8`
`??_R0?AV_Iostream_error_category@std@@@8`
`??_R0?AV_System_error_category@std@@@8`
`??_R0?AVbad_alloc@std@@@8`
`??_R0?AVbad_exception@std@@@8`
`??_R0?AVerror_category@std@@@8`
`??_R0?AVexception@std@@@8`
`??_R0?AVlength_error@std@@@8`
`??_R0?AVlogic_error@std@@@8`
`??_R0?AVout_of_range@std@@@8`
`??_R0?AVtype_info@@@8`
`??_R0PAVInvalidPacketException@CPacket@@@8`
`??_R0PAX@8`
`??_R1A@?0A@EA@?$BinaryDataBox@UFriendPointReward@@@@8`
`??_R1A@?0A@EA@?$BinaryDataBox@UGradeItemOption@@@@8`
`??_R1A@?0A@EA@?$BinaryDataBox@UItemDropLog@@@@8`
`??_R1A@?0A@EA@?$BinaryDataBox@UItemInfo@@@@8`
`??_R1A@?0A@EA@?$BinaryDataBox@UItemInfoServer@@@@8`
`??_R1A@?0A@EA@?$BinaryDataBox@UItemInvenDel@@@@8`
`??_R1A@?0A@EA@?$BinaryDataBox@UItemMoney@@@@8`
`??_R1A@?0A@EA@?$BinaryDataBox@UItemOptions@@@@8`
`??_R1A@?0A@EA@?$BinaryDataBox@UItemSort@@@@8`
`??_R1A@?0A@EA@?$BinaryDataBox@UMapInfo@@@@8`
`??_R1A@?0A@EA@?$BinaryDataBox@UShineReward@@@@8`
`??_R1A@?0A@EA@?$List@UCard@CardDeck@@@@8`
`??_R1A@?0A@EA@?$ListEraser@UCard@CardDeck@@@@8`
`??_R1A@?0A@EA@?$ListIteratorDefault@UCard@CardDeck@@@@8`
`??_R1A@?0A@EA@?$PROTOCOLFUNCTIONTEMPLETE@P8CPFs@@AEHPAUNETPACKET@@H@Z@@8`
`??_R1A@?0A@EA@?$Singleton@VWinService@@@@8`
`??_R1A@?0A@EA@BinaryData@@8`
`??_R1A@?0A@EA@CDataReader@@8`
`??_R1A@?0A@EA@CIOBuffer@@8`
`??_R1A@?0A@EA@CIOCP_Process_Interfece@@8`
`??_R1A@?0A@EA@CIOCP_Process_Manager@@8`
`??_R1A@?0A@EA@CIOCP_Process_Manager_App@@8`
`??_R1A@?0A@EA@CIOCP_Process_Socket@@8`
`??_R1A@?0A@EA@CIOCP_Process_Socket_Session@@8`
`??_R1A@?0A@EA@CItemAuthorityBase@@8`
`??_R1A@?0A@EA@CMD5Checksum@@8`
`??_R1A@?0A@EA@CPacket@@8`
`??_R1A@?0A@EA@CPacket_Parser_Interface@@8`
`??_R1A@?0A@EA@CPacket_Parser_Socket_Session@@8`
`??_R1A@?0A@EA@CParser@@8`
`??_R1A@?0A@EA@CParserAccountLog@@8`
`??_R1A@?0A@EA@CSQLPReport@@8`
`??_R1A@?0A@EA@CSession@@8`
`??_R1A@?0A@EA@CSessionWorker@@8`
`??_R1A@?0A@EA@CSession_Manager@@8`
`??_R1A@?0A@EA@CSocket_Acceptor_Process_Interface@@8`
`??_R1A@?0A@EA@CSocket_Acceptor_Process_Manager@@8`
`??_R1A@?0A@EA@CSocket_Acceptor_Process_Manager_App@@8`
`??_R1A@?0A@EA@CSocket_Session@@8`
`??_R1A@?0A@EA@CSocket_Session_Manager@@8`
`??_R1A@?0A@EA@DBRecord@@8`
`??_R1A@?0A@EA@Database@@8`
`??_R1A@?0A@EA@FPRewardData@@8`
`??_R1A@?0A@EA@ItemAttrCls_ActionItem@@8`
`??_R1A@?0A@EA@ItemAttrCls_ActiveSkill@@8`
`??_R1A@?0A@EA@ItemAttrCls_Amount@@8`
`??_R1A@?0A@EA@ItemAttrCls_Amulet@@8`
`??_R1A@?0A@EA@ItemAttrCls_Armor@@8`
`??_R1A@?0A@EA@ItemAttrCls_BindItem@@8`
`??_R1A@?0A@EA@ItemAttrCls_Boot@@8`
`??_R1A@?0A@EA@ItemAttrCls_Bracelet@@8`
`??_R1A@?0A@EA@ItemAttrCls_ByteLot@@8`
`??_R1A@?0A@EA@ItemAttrCls_Capsule@@8`
`??_R1A@?0A@EA@ItemAttrCls_CardCollect@@8`
`??_R1A@?0A@EA@ItemAttrCls_CardCollect_Close@@8`
`??_R1A@?0A@EA@ItemAttrCls_CostumShield@@8`
`??_R1A@?0A@EA@ItemAttrCls_CostumWeapon@@8`
`??_R1A@?0A@EA@ItemAttrCls_Decoration@@8`
`??_R1A@?0A@EA@ItemAttrCls_DwrdLot@@8`
`??_R1A@?0A@EA@ItemAttrCls_Enchant@@8`
`??_R1A@?0A@EA@ItemAttrCls_Feed@@8`
`??_R1A@?0A@EA@ItemAttrCls_Furniture@@8`
`??_R1A@?0A@EA@ItemAttrCls_GBCoin@@8`
`??_R1A@?0A@EA@ItemAttrCls_ItemChest@@8`
`??_R1A@?0A@EA@ItemAttrCls_KQStep@@8`
`??_R1A@?0A@EA@ItemAttrCls_KingdomQuestItem@@8`
`??_R1A@?0A@EA@ItemAttrCls_MiniHouseSkin@@8`
`??_R1A@?0A@EA@ItemAttrCls_NoEffect@@8`
`??_R1A@?0A@EA@ItemAttrCls_NotLot@@8`
`??_R1A@?0A@EA@ItemAttrCls_Pet@@8`
`??_R1A@?0A@EA@ItemAttrCls_QuestLot@@8`
`??_R1A@?0A@EA@ItemAttrCls_RecallScroll@@8`
`??_R1A@?0A@EA@ItemAttrCls_Riding@@8`
`??_R1A@?0A@EA@ItemAttrCls_Shield@@8`
`??_R1A@?0A@EA@ItemAttrCls_SkillScroll@@8`
`??_R1A@?0A@EA@ItemAttrCls_UpSource@@8`
`??_R1A@?0A@EA@ItemAttrCls_UpgradeBlueGem@@8`
`??_R1A@?0A@EA@ItemAttrCls_UpgradeGoldGem@@8`
`??_R1A@?0A@EA@ItemAttrCls_UpgradeRedGem@@8`
`??_R1A@?0A@EA@ItemAttrCls_Weapon@@8`
`??_R1A@?0A@EA@ItemAttrCls_WeaponTitlaLicence@@8`
`??_R1A@?0A@EA@ItemAttrCls_WordLot@@8`
`??_R1A@?0A@EA@ItemAttributeClass@@8`
`??_R1A@?0A@EA@ItemBelongAttribute@@8`
`??_R1A@?0A@EA@ItemOptionsData@@8`
`??_R1A@?0A@EA@RewardData@@8`
`??_R1A@?0A@EA@String@@8`
`??_R1A@?0A@EA@WinService@@8`
`??_R1A@?0A@EA@_Generic_error_category@std@@8`
`??_R1A@?0A@EA@_Iostream_error_category@std@@8`
`??_R1A@?0A@EA@_System_error_category@std@@8`
`??_R1A@?0A@EA@bad_alloc@std@@8`
`??_R1A@?0A@EA@bad_exception@std@@8`
`??_R1A@?0A@EA@error_category@std@@8`
`??_R1A@?0A@EA@exception@std@@8`
`??_R1A@?0A@EA@length_error@std@@8`
`??_R1A@?0A@EA@logic_error@std@@8`
`??_R1A@?0A@EA@out_of_range@std@@8`
`??_R1A@?0A@EA@type_info@@8`
`??_R1A@?0A@EN@CPacket_Parser_Interface@@8`
`??_R2?$BinaryDataBox@UFriendPointReward@@@@8`
`??_R2?$BinaryDataBox@UGradeItemOption@@@@8`
`??_R2?$BinaryDataBox@UItemDropLog@@@@8`
`??_R2?$BinaryDataBox@UItemInfo@@@@8`
`??_R2?$BinaryDataBox@UItemInfoServer@@@@8`
`??_R2?$BinaryDataBox@UItemInvenDel@@@@8`
`??_R2?$BinaryDataBox@UItemMoney@@@@8`
`??_R2?$BinaryDataBox@UItemOptions@@@@8`
`??_R2?$BinaryDataBox@UItemSort@@@@8`
`??_R2?$BinaryDataBox@UMapInfo@@@@8`
`??_R2?$BinaryDataBox@UShineReward@@@@8`
`??_R2?$List@UCard@CardDeck@@@@8`
`??_R2?$ListEraser@UCard@CardDeck@@@@8`
`??_R2?$ListIteratorDefault@UCard@CardDeck@@@@8`
`??_R2?$PROTOCOLFUNCTIONTEMPLETE@P8CPFs@@AEHPAUNETPACKET@@H@Z@@8`
`??_R2?$Singleton@VWinService@@@@8`
`??_R2BinaryData@@8`
`??_R2CDataReader@@8`
`??_R2CIOBuffer@@8`
`??_R2CIOCP_Process_Interfece@@8`
`??_R2CIOCP_Process_Manager@@8`
`??_R2CIOCP_Process_Manager_App@@8`
`??_R2CIOCP_Process_Socket@@8`
`??_R2CIOCP_Process_Socket_Session@@8`
`??_R2CItemAuthorityBase@@8`
`??_R2CMD5Checksum@@8`
`??_R2CPacket@@8`
`??_R2CPacket_Parser_Interface@@8`
`??_R2CPacket_Parser_Socket_Session@@8`
`??_R2CParser@@8`
`??_R2CParserAccountLog@@8`
`??_R2CSQLPReport@@8`
`??_R2CSession@@8`
`??_R2CSessionWorker@@8`
`??_R2CSession_Manager@@8`
`??_R2CSocket_Acceptor_Process_Interface@@8`
`??_R2CSocket_Acceptor_Process_Manager@@8`
`??_R2CSocket_Acceptor_Process_Manager_App@@8`
`??_R2CSocket_Session@@8`
`??_R2CSocket_Session_Manager@@8`
`??_R2DBRecord@@8`
`??_R2Database@@8`
`??_R2FPRewardData@@8`
`??_R2ItemAttrCls_ActionItem@@8`
`??_R2ItemAttrCls_ActiveSkill@@8`
`??_R2ItemAttrCls_Amount@@8`
`??_R2ItemAttrCls_Amulet@@8`
`??_R2ItemAttrCls_Armor@@8`
`??_R2ItemAttrCls_BindItem@@8`
`??_R2ItemAttrCls_Boot@@8`
`??_R2ItemAttrCls_Bracelet@@8`
`??_R2ItemAttrCls_ByteLot@@8`
`??_R2ItemAttrCls_Capsule@@8`
`??_R2ItemAttrCls_CardCollect@@8`
`??_R2ItemAttrCls_CardCollect_Close@@8`
`??_R2ItemAttrCls_CostumShield@@8`
`??_R2ItemAttrCls_CostumWeapon@@8`
`??_R2ItemAttrCls_Decoration@@8`
`??_R2ItemAttrCls_DwrdLot@@8`
`??_R2ItemAttrCls_Enchant@@8`
`??_R2ItemAttrCls_Feed@@8`
`??_R2ItemAttrCls_Furniture@@8`
`??_R2ItemAttrCls_GBCoin@@8`
`??_R2ItemAttrCls_ItemChest@@8`
`??_R2ItemAttrCls_KQStep@@8`
`??_R2ItemAttrCls_KingdomQuestItem@@8`
`??_R2ItemAttrCls_MiniHouseSkin@@8`
`??_R2ItemAttrCls_NoEffect@@8`
`??_R2ItemAttrCls_NotLot@@8`
`??_R2ItemAttrCls_Pet@@8`
`??_R2ItemAttrCls_QuestLot@@8`
`??_R2ItemAttrCls_RecallScroll@@8`
`??_R2ItemAttrCls_Riding@@8`
`??_R2ItemAttrCls_Shield@@8`
`??_R2ItemAttrCls_SkillScroll@@8`
`??_R2ItemAttrCls_UpSource@@8`
`??_R2ItemAttrCls_UpgradeBlueGem@@8`
`??_R2ItemAttrCls_UpgradeGoldGem@@8`
`??_R2ItemAttrCls_UpgradeRedGem@@8`
`??_R2ItemAttrCls_Weapon@@8`
`??_R2ItemAttrCls_WeaponTitlaLicence@@8`
`??_R2ItemAttrCls_WordLot@@8`
`??_R2ItemAttributeClass@@8`
`??_R2ItemBelongAttribute@@8`
`??_R2ItemOptionsData@@8`
`??_R2RewardData@@8`
`??_R2String@@8`
`??_R2WinService@@8`
`??_R2_Generic_error_category@std@@8`
`??_R2_Iostream_error_category@std@@8`
`??_R2_System_error_category@std@@8`
`??_R2bad_alloc@std@@8`
`??_R2bad_exception@std@@8`
`??_R2error_category@std@@8`
`??_R2exception@std@@8`
`??_R2length_error@std@@8`
`??_R2logic_error@std@@8`
`??_R2out_of_range@std@@8`
`??_R2type_info@@8`
`??_R3?$BinaryDataBox@UFriendPointReward@@@@8`
`??_R3?$BinaryDataBox@UGradeItemOption@@@@8`
`??_R3?$BinaryDataBox@UItemDropLog@@@@8`
`??_R3?$BinaryDataBox@UItemInfo@@@@8`
`??_R3?$BinaryDataBox@UItemInfoServer@@@@8`
`??_R3?$BinaryDataBox@UItemInvenDel@@@@8`
`??_R3?$BinaryDataBox@UItemMoney@@@@8`
`??_R3?$BinaryDataBox@UItemOptions@@@@8`
`??_R3?$BinaryDataBox@UItemSort@@@@8`
`??_R3?$BinaryDataBox@UMapInfo@@@@8`
`??_R3?$BinaryDataBox@UShineReward@@@@8`
`??_R3?$List@UCard@CardDeck@@@@8`
`??_R3?$ListEraser@UCard@CardDeck@@@@8`
`??_R3?$ListIteratorDefault@UCard@CardDeck@@@@8`
`??_R3?$PROTOCOLFUNCTIONTEMPLETE@P8CPFs@@AEHPAUNETPACKET@@H@Z@@8`
`??_R3?$Singleton@VWinService@@@@8`
`??_R3BinaryData@@8`
`??_R3CDataReader@@8`
`??_R3CIOBuffer@@8`
`??_R3CIOCP_Process_Interfece@@8`
`??_R3CIOCP_Process_Manager@@8`
`??_R3CIOCP_Process_Manager_App@@8`
`??_R3CIOCP_Process_Socket@@8`
`??_R3CIOCP_Process_Socket_Session@@8`
`??_R3CItemAuthorityBase@@8`
`??_R3CMD5Checksum@@8`
`??_R3CPacket@@8`
`??_R3CPacket_Parser_Interface@@8`
`??_R3CPacket_Parser_Socket_Session@@8`
`??_R3CParser@@8`
`??_R3CParserAccountLog@@8`
`??_R3CSQLPReport@@8`
`??_R3CSession@@8`
`??_R3CSessionWorker@@8`
`??_R3CSession_Manager@@8`
`??_R3CSocket_Acceptor_Process_Interface@@8`
`??_R3CSocket_Acceptor_Process_Manager@@8`
`??_R3CSocket_Acceptor_Process_Manager_App@@8`
`??_R3CSocket_Session@@8`
`??_R3CSocket_Session_Manager@@8`
`??_R3DBRecord@@8`
`??_R3Database@@8`
`??_R3FPRewardData@@8`
`??_R3ItemAttrCls_ActionItem@@8`
`??_R3ItemAttrCls_ActiveSkill@@8`
`??_R3ItemAttrCls_Amount@@8`
`??_R3ItemAttrCls_Amulet@@8`
`??_R3ItemAttrCls_Armor@@8`
`??_R3ItemAttrCls_BindItem@@8`
`??_R3ItemAttrCls_Boot@@8`
`??_R3ItemAttrCls_Bracelet@@8`
`??_R3ItemAttrCls_ByteLot@@8`
`??_R3ItemAttrCls_Capsule@@8`
`??_R3ItemAttrCls_CardCollect@@8`
`??_R3ItemAttrCls_CardCollect_Close@@8`
`??_R3ItemAttrCls_CostumShield@@8`
`??_R3ItemAttrCls_CostumWeapon@@8`
`??_R3ItemAttrCls_Decoration@@8`
`??_R3ItemAttrCls_DwrdLot@@8`
`??_R3ItemAttrCls_Enchant@@8`
`??_R3ItemAttrCls_Feed@@8`
`??_R3ItemAttrCls_Furniture@@8`
`??_R3ItemAttrCls_GBCoin@@8`
`??_R3ItemAttrCls_ItemChest@@8`
`??_R3ItemAttrCls_KQStep@@8`
`??_R3ItemAttrCls_KingdomQuestItem@@8`
`??_R3ItemAttrCls_MiniHouseSkin@@8`
`??_R3ItemAttrCls_NoEffect@@8`
`??_R3ItemAttrCls_NotLot@@8`
`??_R3ItemAttrCls_Pet@@8`
`??_R3ItemAttrCls_QuestLot@@8`
`??_R3ItemAttrCls_RecallScroll@@8`
`??_R3ItemAttrCls_Riding@@8`
`??_R3ItemAttrCls_Shield@@8`
`??_R3ItemAttrCls_SkillScroll@@8`
`??_R3ItemAttrCls_UpSource@@8`
`??_R3ItemAttrCls_UpgradeBlueGem@@8`
`??_R3ItemAttrCls_UpgradeGoldGem@@8`
`??_R3ItemAttrCls_UpgradeRedGem@@8`
`??_R3ItemAttrCls_Weapon@@8`
`??_R3ItemAttrCls_WeaponTitlaLicence@@8`
`??_R3ItemAttrCls_WordLot@@8`
`??_R3ItemAttributeClass@@8`
`??_R3ItemBelongAttribute@@8`
`??_R3ItemOptionsData@@8`
`??_R3RewardData@@8`
`??_R3String@@8`
`??_R3WinService@@8`
`??_R3_Generic_error_category@std@@8`
`??_R3_Iostream_error_category@std@@8`
`??_R3_System_error_category@std@@8`
`??_R3bad_alloc@std@@8`
`??_R3bad_exception@std@@8`
`??_R3error_category@std@@8`
`??_R3exception@std@@8`
`??_R3length_error@std@@8`
`??_R3logic_error@std@@8`
`??_R3out_of_range@std@@8`
`??_R3type_info@@8`
`??_R4?$BinaryDataBox@UFriendPointReward@@@@6B@`
`??_R4?$BinaryDataBox@UGradeItemOption@@@@6B@`
`??_R4?$BinaryDataBox@UItemDropLog@@@@6B@`
`??_R4?$BinaryDataBox@UItemInfo@@@@6B@`
`??_R4?$BinaryDataBox@UItemInfoServer@@@@6B@`
`??_R4?$BinaryDataBox@UItemInvenDel@@@@6B@`
`??_R4?$BinaryDataBox@UItemMoney@@@@6B@`
`??_R4?$BinaryDataBox@UItemOptions@@@@6B@`
`??_R4?$BinaryDataBox@UItemSort@@@@6B@`
`??_R4?$BinaryDataBox@UMapInfo@@@@6B@`
`??_R4?$BinaryDataBox@UShineReward@@@@6B@`
`??_R4?$List@UCard@CardDeck@@@@6B@`
`??_R4?$ListEraser@UCard@CardDeck@@@@6B@`
`??_R4?$ListIteratorDefault@UCard@CardDeck@@@@6B@`
`??_R4?$PROTOCOLFUNCTIONTEMPLETE@P8CPFs@@AEHPAUNETPACKET@@H@Z@@6B@`
`??_R4BinaryData@@6B@`
`??_R4CDataReader@@6B@`
`??_R4CIOBuffer@@6B@`
`??_R4CIOCP_Process_Interfece@@6B@`
`??_R4CIOCP_Process_Manager@@6B@`
`??_R4CIOCP_Process_Manager_App@@6B@`
`??_R4CIOCP_Process_Socket@@6B@`
`??_R4CIOCP_Process_Socket_Session@@6B@`
`??_R4CItemAuthorityBase@@6B@`
`??_R4CMD5Checksum@@6B@`
`??_R4CPacket@@6B@`
`??_R4CPacket_Parser_Socket_Session@@6B@`
`??_R4CParser@@6B@`
`??_R4CParserAccountLog@@6B@`
`??_R4CSQLPReport@@6B@`
`??_R4CSession@@6B@`
`??_R4CSessionWorker@@6B@`
`??_R4CSession_Manager@@6B@`
`??_R4CSocket_Acceptor_Process_Interface@@6B@`
`??_R4CSocket_Acceptor_Process_Manager@@6B@`
`??_R4CSocket_Acceptor_Process_Manager_App@@6B@`
`??_R4CSocket_Session@@6B@`
`??_R4CSocket_Session_Manager@@6B@`
`??_R4DBRecord@@6B@`
`??_R4Database@@6B@`
`??_R4FPRewardData@@6B@`
`??_R4ItemAttrCls_ActionItem@@6B@`
`??_R4ItemAttrCls_ActiveSkill@@6B@`
`??_R4ItemAttrCls_Amount@@6B@`
`??_R4ItemAttrCls_Amulet@@6B@`
`??_R4ItemAttrCls_Armor@@6B@`
`??_R4ItemAttrCls_BindItem@@6B@`
`??_R4ItemAttrCls_Boot@@6B@`
`??_R4ItemAttrCls_Bracelet@@6B@`
`??_R4ItemAttrCls_ByteLot@@6B@`
`??_R4ItemAttrCls_Capsule@@6B@`
`??_R4ItemAttrCls_CardCollect@@6B@`
`??_R4ItemAttrCls_CardCollect_Close@@6B@`
`??_R4ItemAttrCls_CostumShield@@6B@`
`??_R4ItemAttrCls_CostumWeapon@@6B@`
`??_R4ItemAttrCls_Decoration@@6B@`
`??_R4ItemAttrCls_DwrdLot@@6B@`
`??_R4ItemAttrCls_Enchant@@6B@`
`??_R4ItemAttrCls_Feed@@6B@`
`??_R4ItemAttrCls_Furniture@@6B@`
`??_R4ItemAttrCls_GBCoin@@6B@`
`??_R4ItemAttrCls_ItemChest@@6B@`
`??_R4ItemAttrCls_KQStep@@6B@`
`??_R4ItemAttrCls_KingdomQuestItem@@6B@`
`??_R4ItemAttrCls_MiniHouseSkin@@6B@`
`??_R4ItemAttrCls_NoEffect@@6B@`
`??_R4ItemAttrCls_Pet@@6B@`
`??_R4ItemAttrCls_QuestLot@@6B@`
`??_R4ItemAttrCls_RecallScroll@@6B@`
`??_R4ItemAttrCls_Riding@@6B@`
`??_R4ItemAttrCls_Shield@@6B@`
`??_R4ItemAttrCls_SkillScroll@@6B@`
`??_R4ItemAttrCls_UpSource@@6B@`
`??_R4ItemAttrCls_UpgradeBlueGem@@6B@`
`??_R4ItemAttrCls_UpgradeGoldGem@@6B@`
`??_R4ItemAttrCls_UpgradeRedGem@@6B@`
`??_R4ItemAttrCls_Weapon@@6B@`
`??_R4ItemAttrCls_WeaponTitlaLicence@@6B@`
`??_R4ItemAttrCls_WordLot@@6B@`
`??_R4ItemAttributeClass@@6B@`
`??_R4ItemBelongAttribute@@6B@`
`??_R4ItemOptionsData@@6B@`
`??_R4RewardData@@6B@`
`??_R4String@@6B@`
`??_R4WinService@@6B@`
`??_R4_Generic_error_category@std@@6B@`
`??_R4_Iostream_error_category@std@@6B@`
`??_R4_System_error_category@std@@6B@`
`??_R4bad_alloc@std@@6B@`
`??_R4bad_exception@std@@6B@`
`??_R4error_category@std@@6B@`
`??_R4exception@std@@6B@`
`??_R4length_error@std@@6B@`
`??_R4logic_error@std@@6B@`
`??_R4out_of_range@std@@6B@`
`??_R4type_info@@6B@`
`??_U@YAPAXI@Z`
`??_V@YAXPAX@Z`
`?AcceptThread@CSocket_Acceptor@@SGKPAX@Z`
`?Accept_Process@CSocket_Acceptor_Process_Interface@@UAEHIPAUsockaddr_in@@@Z`
`?Accept_Process@CSocket_Acceptor_Process_Manager@@UAEHIPAUsockaddr_in@@@Z`
`?Accept_Process@CSocket_Acceptor_Process_Manager_App@@UAEHIPAUsockaddr_in@@@Z`
`?ActiveSession@CSession_Manager@@UAEPAUCSM_SESSION_LIST@CSocket_Session_Manager@@IPAUsockaddr@@@Z`
`?ActiveSession@CSocket_Session_Manager@@UAEPAUCSM_SESSION_LIST@1@IPAUsockaddr@@@Z`
`?ActiveToEmpty@CSocket_Session_Manager@@QAEXPAUCSM_SESSION_LIST@1@@Z`
`?AddFormat@CCsl@@AAEHPAUCSL_FORMAT_LIST@1@@Z`
`?AddQue@CSessionWorkerManager@@QAEHPAVCSession@@PAEK@Z`
`?AddResultMsg@CCsl@@AAEHPAD@Z`
`?AllActiveToEmpty@CSocket_Session_Manager@@QAEXXZ`
`?AllEmptyToFree@CSocket_Session_Manager@@QAEXXZ`
`?Alloc@CIOBuffer@@SAPAV1@XZ`
`?CH_ReadProcessMemory@@YGHPAX_K0KPAK@Z`
`?CSM_Enter_CS@CSocket_Session_Manager@@QAEXXZ`
`?CSM_Leave_CS@CSocket_Session_Manager@@QAEXXZ`
`?CheckConnectionValidation@CPFs@@QAEHPAUNETPACKET@@@Z`
`?CheckHeartBeat@CSession@@QAEHXZ`
`?CheckReadData@MapDataBox@@QAE_NPAD@Z`
`?Clear@CCsl@@QAEXXZ`
`?Clear@CGdp@@AAEXXZ`
`?Clear@CPacket@@UAEXXZ`
`?ClearDatas@CCsl@@AAEXXZ`
`?ClearFormats@CCsl@@AAEXXZ`
`?Close@CCsl@@QAEXXZ`
`?Close@CIOCP@@QAEXXZ`
`?Close@CSocket_IOCP@@QAEHXZ`
`?Close@CSocket_Session@@QAEHXZ`
`?Close@CToken@@QAEXXZ`
`?CloseHandle@CGdp@@QAEHPAX@Z`
`?CloseSessions@CSocket_Session_Manager@@QAEHXZ`
`?CloseUseIOCP@CSocket_IOCP@@QAEXPAVCIOCP@@@Z`
`?CommitTran@Database@@QAE_NXZ`
`?CreateFileA@CGdp@@QAEPAXPBDKKPAU_SECURITY_ATTRIBUTES@@KKPAX@Z`
`?DBClose@CGameDB_Connect@@QAEXXZ`
`?DBConnect@CGameDB_Connect@@QAEHPAD0@Z`
`?DB_Init@CSessionWorker@@QAEHXZ`
`?Decode@CPacket@@UAEXXZ`
`?DelQue@CSessionWorkerManager@@QAEHK@Z`
`?DeleteEmptySession@CSession_Manager@@UAEXPAUCSM_SESSION_LIST@CSocket_Session_Manager@@@Z`
`?DeleteEmptySession@CSocket_Session_Manager@@UAEXPAUCSM_SESSION_LIST@1@@Z`
`?DissconnectSessions@CSocket_Session_Manager@@QAEHXZ`
`?EmptyToActive@CSocket_Session_Manager@@QAEXPAUCSM_SESSION_LIST@1@@Z`
`?Encode@CPacket@@UAEXXZ`
`?Encription@CDataReader@@SAXPAEK@Z`
`?FillInStackFrame@@YAXPAU_CONTEXT@@@Z`
`?Final@CMD5Checksum@@IAE?AV?$basic_string@DU?$char_traits@D@std@@V?$allocator@D@2@@std@@XZ`
`?FindSession@CSession_Manager@@QAEPAUAPP_SESSION_LIST@1@HPAU21@@Z`
`?Free@CIOBuffer@@QAEXXZ`
`?FreeBuffer@CSocket_IOCP@@AAEXXZ`
`?FreeWorker@CSessionWorkerManager@@QAEXXZ`
`?FuncForStack@MiniDumper@@2P6AXXZA`
`?GdpClose@CGdp@@QAEHXZ`
`?GdpCloseFile@CGdp@@AAEHXZ`
`?GdpDecryptData@CGdp@@AAEXPAXK@Z`
`?GdpDeleteFile@CGdp@@AAEHK@Z`
`?GdpDeleteFile@CGdp@@AAEHPBD@Z`
`?GdpGetEmptyChunk@CGdp@@AAEKXZ`
`?GdpMakeEmptyChunk@CGdp@@AAEKK@Z`
`?GdpSearchFile@CGdp@@AAEKPBD@Z`
`?GdpSetFilePointer@CGdp@@AAEKJPAJK@Z`
`?GdpUpdateChunk@CGdp@@AAEHK@Z`
`?GdpWriteChunk@CGdp@@AAEHPAUGDP_CHUNK@1@@Z`
`?GetCurrentTimeString2@@YAPBDH@Z`
`?GetCurrentTimeString@@YAPBDH@Z`
`?GetData@CCsl@@QAEPAXHH@Z`
`?GetDataInfo@CCsl@@QAEPAUCSL_DATA_LIST@1@H@Z`
`?GetDataPtr@CPacket@@UAEPADXZ`
`?GetDataSize@CPacket@@UAEGXZ`
`?GetDataToken@CCsl@@AAEPADXZ`
`?GetFileSize@CGdp@@QAEKPAXPAK@Z`
`?GetFormat@CCsl@@QAEPAUCSL_FORMAT_LIST@1@H@Z`
`?GetHostAddress@InetAddress@@SAPADXZ`
`?GetIDPtr@CPacket@@UAEPAGXZ`
`?GetJobA@CSessionWorkerManager@@QAEHPAVCSessionWorker@@@Z`
`?GetLastErrorStr@@YAPBDKH@Z`
`?GetLevel@CWeaponTitle@@QAEKGK@Z`
`?GetMD5@CMD5Checksum@@SA?AV?$basic_string@DU?$char_traits@D@std@@V?$allocator@D@2@@std@@PAEI@Z`
`?GetMyServerInfo@CServerInfo@@QAEHPAUMY_SERVER@1@@Z`
`?GetNewActiveSession@CSocket_Session_Manager@@QAEPAUCSM_SESSION_LIST@1@XZ`
`?GetNumDatas@CCsl@@QAEHXZ`
`?GetODBCInfo@CServerInfo@@QAEHPAUODBC_INFO@1@HH@Z`
`?GetPacket@CPacket@@UAEHPAGPAPADPAH@Z`
`?GetPacketSize@CPacket@@UAEHPAH@Z`
`?GetRecord@CDataReader@@QAEPAXK@Z`
`?GetSendPtr@CSendPacket@@QAEPAXXZ`
`?GetSendSize@CSendPacket@@QAEKXZ`
`?GetServerIndex@CServerInfo@@QAEHHHH@Z`
`?GetServerInfo@CServerInfo@@QAEHPAUSERVER_INFO@1@H@Z`
`?GetServerInfo@CServerInfo@@QAEHPAUSERVER_INFO@1@HHH@Z`
`?GetShineServerIDName@@YAPBDH@Z`
`?GetShineServerIDShortName@@YAPBDH@Z`
`?GetSocketRateData@EnchantSocketRateData@@SAPAV1@XZ`
`?GetTime@CGTimer@@SAKXZ`
`?GetToken@CToken@@QAEPADXZ`
`?GetTokenString@CToken@@QAEPADPAH@Z`
`?GetWriteableBufferSize@CPacket@@QAEHXZ`
`?GoBegin@CToken@@QAEHXZ`
`?GoNextLine@CToken@@QAEHXZ`
`?GoStartString@CToken@@QAEPADXZ`
`?IA_GetBelongTypeInfo@ItemBelongAttribute@@UAEPBUBelongTypeInfo@@W4E_BelongType@@@Z`
`?ID@CPacket@@UAEAAV1@GHPAD@Z`
`?ID@CPacket@@UAEGXZ`
`?ID@CSendPacket@@QAEAAV1@GKPAX@Z`
`?IOBufferList@@3PAVIOBufferContainer@@A`
`?IOCP_CloseProcess@CIOCP_Process_Interfece@@UAEXPAUIOCP_OVERLAPPED@CIOCP@@@Z`
`?IOCP_CloseProcess@CIOCP_Process_Manager_App@@UAEXPAUIOCP_OVERLAPPED@CIOCP@@@Z`
`?IOCP_Process@CIOCP_Process_Interfece@@UAEHPAUIOCP_OVERLAPPED@CIOCP@@K@Z`
`?IOCP_Process@CIOCP_Process_Manager@@UAEHPAUIOCP_OVERLAPPED@CIOCP@@K@Z`
`?IOCP_Process@CIOCP_Process_Manager_App@@UAEHPAUIOCP_OVERLAPPED@CIOCP@@K@Z`
`?IOCP_Process@CIOCP_Process_Socket@@UAEHPAUIOCP_OVERLAPPED@CIOCP@@K@Z`
`?IOCP_Process@CIOCP_Process_Socket_Session@@UAEHPAUIOCP_OVERLAPPED@CIOCP@@K@Z`
`?IOCP_Process@CSession@@QAEHPAUIOCP_OVERLAPPED@CIOCP@@K@Z`
`?InactiveSession@CSession_Manager@@UAEHPAUCSM_SESSION_LIST@CSocket_Session_Manager@@@Z`
`?InactiveSession@CSocket_Session_Manager@@UAEHPAUCSM_SESSION_LIST@1@@Z`
`?IncludeFile@CCsl@@AAEXXZ`
`?InitDataFileCheckSum@CShnDataFileCheckSum@@QAEEPBDTName8@@@Z`
`?InitEnv@Database@@IAE_NXZ`
`?InitSessions@CSocket_Session_Manager@@QAEHPAVCIOCP@@HPAVCIOCP_Process_Interfece@@PAVCSocket_Acceptor_Process_Interface@@@Z`
`?Initialize@CSocket_Acceptor@@AAEHPADHH@Z`
`?IsTokenID@CToken@@QAEKPADPAPADK@Z`
`?IsValidHeader@CPacket@@UAEHXZ`
`?IsValidPacket@CPacket@@UAEHXZ`
`?Listen@CSocket_Acceptor@@QAEHHH@Z`
`?Listen@CSocket_Acceptor@@QAEHPADHH@Z`
`?MainThread@DataServer@@SGKPAX@Z`
`?MakeAEmptySession@CSession_Manager@@UAEPAUCSM_SESSION_LIST@CSocket_Session_Manager@@XZ`
`?MakeAEmptySession@CSocket_Session_Manager@@UAEPAUCSM_SESSION_LIST@1@XZ`
`?MakeData@CCsl@@AAEPAUCSL_DATA_LIST@1@KPAUCSL_FORMAT_LIST@1@@Z`
`?MakeDataTable@CCsl@@AAEHXZ`
`?MakeFormat@CCsl@@AAEPAUCSL_FORMAT_LIST@1@XZ`
`?MakeFormatTable@CCsl@@AAEHXZ`
`?MinidumpCallStack@MiniDumper@@SAXPAU_EXCEPTION_POINTERS@@@Z`
`?OnStart_Service@@YA_NXZ`
`?OnStart_Service@DataServer@@QAE_NXZ`
`?OnStop_Service@@YAXXZ`
`?OnStop_Service@DataServer@@QAEXXZ`
`?Open@CGdp@@QAEHK@Z`
`?Open@CGdp@@QAEHPBD@Z`
`?Open@CToken@@QAEHPAD@Z`
`?OpenFromMemory@CToken@@QAEHPAD@Z`
`?PacketStroe@CSession@@QAEHPAVCPacket@@@Z`
`?Parameter_filename@CCsl@@AAEHPAD@Z`
`?ParseCmd@DataServer@@QAE_NPAD@Z`
`?Parser@CPacket_Parser_Socket_Session@@UAEHPAVCPacket@@@Z`
`?Parser@CParser@@UAEHPAVCPacket@@@Z`
`?ProcCmd@CCsl@@AAEHPAD0@Z`
`?ProcData@CCsl@@AAEHPAD0@Z`
`?ProcHeartBeat@CSession_Manager@@QAEXXZ`
`?ProcRemark@CCsl@@AAEHPAD@Z`
`?Process@CStatistics@@QAEHPAVCSession_Manager@@@Z`
`?Read@CCsl@@QAEHPAD@Z`
`?Read@CDataReader@@QAEHPBD@Z`
`?Read@CDataReader@@QAEHPBDKK@Z`
`?ReadData@ItemDataBox@@QAE_NPAD@Z`
`?ReadDefineScriptor@DataServer@@QAEHXZ`
`?ReadFile@CGdp@@QAEHPAX0KPAKPAU_OVERLAPPED@@@Z`
`?ReadScript@CCsl@@QAEHPADPAUHWND__@@IPAX@Z`
`?ReadScriptDone@CCsl@@AAEXXZ`
`?ReadServerInfo@CServerInfo@@QAEHPAD@Z`
`?Receive@CSocket_IOCP@@QAEHPAXKPAK@Z`
`?Register@CIOCP@@QAEPAXPAXK@Z`
`?RemoveAllUsedPacket@CPacket@@UAEHXZ`
`?RestoreTokenPositon@CToken@@QAEHPBD@Z`
`?RidingInitHP@@YAKG@Z`
`?RidingInitHungry@@YAGG@Z`
`?SLS_AddLog@cShineLogSystem@@QAA_NPBDZZ`
`?SLS_SetLogName@cShineLogSystem@@QAEXPAD@Z`
`?SaveSysLog@CPFsAccountLog@@QAEXPAD@Z`
`?SaveTokenPositon@CToken@@QAEXXZ`
`?Send@CSession@@QAEHPAVCSendPacket@@@Z`
`?Send@CSession@@QAEHPAXH@Z`
`?Send@CSocket_IOCP@@QAEHPAXK@Z`
`?Send@CSocket_Session@@QAEHPAVCSendPacket@@@Z`
`?Send@CSocket_Session@@QAEHPAXH@Z`
`?Send_NC_MISC_S2SCONNECTION_RDY@CSession@@QAEHXZ`
`?SessionWorkThread@CSessionWorker@@SGKPAX@Z`
`?SetFilePointer@CGdp@@QAEKPAXJPAJK@Z`
`?SetSeprator@CToken@@QAEXPAD@Z`
`?SetSize@CSendPacket@@QAEHK@Z`
`?ShieldCostumInitCharge@@YAGG@Z`
`?ShineExit@@YAXPAD@Z`
`?ShnDataFile@@3VCShnDataFileCheckSum@@A`
`?Shutdown@CSocket_IOCP@@QAEHXZ`
`?SocketCloseUseIOCP@CSession@@QAEXPAVCIOCP@@@Z`
`?Socket_Register_To_IOCP@CSocket_Session@@QAEHPAVCIOCP@@@Z`
`?Start@CIOCP@@QAEHHH@Z`
`?Start@CSessionWorker@@QAEHPAVCSessionWorkerManager@@HH@Z`
`?Start@CSessionWorkerManager@@QAEHHH@Z`
`?Start@DataServer@@QAEHPAD@Z`
`?Start_AcceptThread@CSocket_Acceptor@@QAEHXZ`
`?Start_Acceptor@DataServer@@QAEHXZ`
`?Start_MainThread@DataServer@@QAE_NXZ`
`?Stop@CIOCP@@QAEXH@Z`
`?Stop@CSessionWorker@@QAEXXZ`
`?Stop@CSessionWorkerManager@@QAEXH@Z`
`?Stop@CSocket_Acceptor@@QAEHXZ`
`?TakeNextPacket@CPacket@@UAEXXZ`
`?TopLevelFilter@MiniDumper@@CGJPAU_EXCEPTION_POINTERS@@@Z`
`?Transform@CMD5Checksum@@IAEXQAE@Z`
`?Update@CMD5Checksum@@IAEXPAEK@Z`
`?UpdateWriteDataInfo@CGdp@@AAEXPBXK@Z`
`?VarClear@CCsl@@QAEXXZ`
`?ViewDBError@@YAXPADPAX@Z`
`?ViewStartInfo@DataServer@@QAEXXZ`
`?ViewStopInfo@DataServer@@QAEXXZ`
`?Wait@CIOSpinLock@@IAEXXZ`
`?WeaponCostumInitCharge@@YAGG@Z`
`?WinSockStart@InetAddress@@SAHHH@Z`
`?WorkThread@CIOCP@@SGKPAX@Z`
`?WriteCallback@CSocket_IOCP@@QAEXK@Z`
`?WriteData@CCsl@@QAEHPADPAX@Z`
`?WriteData@CPacket@@QAEXPAXH@Z`
`?WriteFile@CGdp@@QAEHPAXPBXKPAKPAU_OVERLAPPED@@@Z`
`?WriteFormat@CCsl@@QAEHPADPAX@Z`
`?_BADOFF@std@@3_JB`
`?_CallCatchBlock2@@YAPAXPAUEHRegistrationNode@@PBU_s_FuncInfo@@PAXHK@Z`
`?_CallMemberFunction0@@YGXPAX0@Z`
`?_CallMemberFunction1@@YGXPAX00@Z`
`?_CallMemberFunction2@@YGXPAX00H@Z`
`?_CallSETranslator@@YAHPAUEHExceptionRecord@@PAUEHRegistrationNode@@PAX2PBU_s_FuncInfo@@H1@Z`
`?_Clocptr@_Locimp@locale@std@@0PAV123@A`
`?_Copy@?$basic_string@DU?$char_traits@D@std@@V?$allocator@D@2@@std@@QAEXII@Z`
`?_Copy_str@exception@std@@AAEXPBD@Z`
`?_DEBUGMSG@@YAXPBDZZ`
`?_DEBUGMSGVC@@YAXHPBDZZ`
`?_DebugMessageNew2@@YAXHPBD0PAD@Z`
`?_DebugMessageNew@@YAXHPBD0ZZ`
`?_Decref@facet@locale@std@@QAEPAV123@XZ`
`?_ExecUpdateInfoMsg@@YAXPBD@Z`
`?_GetRangeOfTrysToCheck@@YAPBU_s_TryBlockMapEntry@@PBU_s_FuncInfo@@HHPAI1@Z`
`?_Id_cnt@id@locale@std@@0HA`
`?_Index@ios_base@std@@0HA`
`?_JumpToContinuation@@YGXPAXPAUEHRegistrationNode@@@Z`
`?_PJP_CPP_Copyright@@3PADA`
`?_Ptr_cerr@std@@3PAV?$basic_ostream@DU?$char_traits@D@std@@@1@A`
`?_Ptr_cin@std@@3PAV?$basic_istream@DU?$char_traits@D@std@@@1@A`
`?_Ptr_clog@std@@3PAV?$basic_ostream@DU?$char_traits@D@std@@@1@A`
`?_Ptr_cout@std@@3PAV?$basic_ostream@DU?$char_traits@D@std@@@1@A`
`?_Ptr_wcerr@std@@3PAV?$basic_ostream@_WU?$char_traits@_W@std@@@1@A`
`?_Ptr_wcin@std@@3PAV?$basic_istream@_WU?$char_traits@_W@std@@@1@A`
`?_Ptr_wclog@std@@3PAV?$basic_ostream@_WU?$char_traits@_W@std@@@1@A`
`?_Ptr_wcout@std@@3PAV?$basic_ostream@_WU?$char_traits@_W@std@@@1@A`
`?_Sync@ios_base@std@@0_NA`
`?_Tidy@exception@std@@AAEXXZ`
`?_Type_info_dtor@type_info@@CAXPAV1@@Z`
`?_UnwindNestedFrames@@YGXPAUEHRegistrationNode@@PAUEHExceptionRecord@@@Z`
`?_ValidateExecute@@YAHP6GHXZ@Z`
`?_ValidateRead@@YAHPBXI@Z`
`?_ValidateWrite@@YAHPAXI@Z`
`?_Xlength_error@std@@YAXPBD@Z`
`?_Xout_of_range@std@@YAXPBD@Z`
`?__ArrayUnwind@@YGXPAXIHP6EX0@Z@Z`
`?__CxxUnhandledExceptionFilter@@YGJPAU_EXCEPTION_POINTERS@@@Z`
`?__pInconsistency@@3P6AXXZA`
`?_inconsistency@@YAXXZ`
`?_pnhHeap@@3P6AHI@ZA`
`?ac_AssertFail@AssertClass@@AAEXPBD0@Z`
`?ac_AssertFail@AssertClass@@AAEXPBDH@Z`
`?ac_DateTime@AssertClass@@AAEXXZ`
`?allocate@?$allocator@D@std@@QAEPADI@Z`
`?append@?$basic_string@DU?$char_traits@D@std@@V?$allocator@D@2@@std@@QAEAAV12@ABV12@II@Z`
`?assign@?$basic_string@DU?$char_traits@D@std@@V?$allocator@D@2@@std@@QAEAAV12@ABV12@II@Z`
`?assign@?$basic_string@DU?$char_traits@D@std@@V?$allocator@D@2@@std@@QAEAAV12@PBDI@Z`
`?bInit@Database@@1_NA`
`?bdb_ReadData@?$BinaryDataBox@UMapInfo@@@@QAEPAV1@PAD@Z`
`?bindColumns@DBRecord@@UAE_NXZ`
`?bt_Insert@BTree@@QAEHPBEK@Z`
`?cim_equip@CharacterInventoryManager@@QAEPAVItemBag@@PAUCharacterInventory@@@Z`
`?cim_inven@CharacterInventoryManager@@QAEPAVItemBag@@PAUCharacterInventory@@@Z`
`?cim_minihouse@CharacterInventoryManager@@QAEPAVItemBag@@PAUCharacterInventory@@@Z`
`?cim_null@CharacterInventoryManager@@QAEPAVItemBag@@PAUCharacterInventory@@@Z`
`?cim_quest@CharacterInventoryManager@@QAEPAVItemBag@@PAUCharacterInventory@@@Z`
`?close@DBRecord@@QAEXXZ`
`?close@Database@@QAEXXZ`
`?cs_InsertBottom@CardStack@CardDeck@@QAEGK@Z`
`?data@?$basic_string@DU?$char_traits@D@std@@V?$allocator@D@2@@std@@QBEPBDXZ`
`?default_error_condition@_System_error_category@std@@UBE?AVerror_condition@2@H@Z`
`?default_error_condition@error_category@std@@UBE?AVerror_condition@2@H@Z`
`?disableFlags@UnDecorator@@0KA`
`?endFetch@DBRecord@@QAEXXZ`
`?equivalent@error_category@std@@UBE_NABVerror_code@2@H@Z`
`?equivalent@error_category@std@@UBE_NHABVerror_condition@2@@Z`
`?erase@?$basic_string@DU?$char_traits@D@std@@V?$allocator@D@2@@std@@QAEAAV12@II@Z`
`?fExplicitTemplateParams@UnDecorator@@0_NA`
`?fGetTemplateArgumentList@UnDecorator@@0_NA`
`?fc_NC_DATA_REPORT_ADD_REQ@CPFsAccountLog@@QAEHPAUNETPACKET@@H@Z`
`?fc_NC_DATA_REPORT_CANCEL_REQ@CPFsAccountLog@@QAEHPAUNETPACKET@@H@Z`
`?fc_NC_DATA_REPORT_GET_REQ@CPFsAccountLog@@QAEHPAUNETPACKET@@H@Z`
`?fc_NC_LOG_USER_LOGIN@CPFsAccountLog@@QAEHPAUNETPACKET@@H@Z`
`?fc_NC_LOG_USER_LOGINFAIL@CPFsAccountLog@@QAEHPAUNETPACKET@@H@Z`
`?fc_NC_LOG_USER_LOGOUT@CPFsAccountLog@@QAEHPAUNETPACKET@@H@Z`
`?fc_NC_MISC_CHAR_LOGOFF_STATISTICS@CPFsAccountLog@@QAEHPAUNETPACKET@@H@Z`
`?fc_NC_MISC_CONNECTER_ACK@CPFsAccountLog@@QAEHPAUNETPACKET@@H@Z`
`?fc_NC_MISC_EVENT_L20_DB_REQ@CPFsAccountLog@@QAEHPAUNETPACKET@@H@Z`
`?fc_NC_MISC_EVENT_LONG_TIME_PLAY_CMD@CPFsAccountLog@@QAEHPAUNETPACKET@@H@Z`
`?fc_NC_MISC_HACK_SCAN_STORE_DB_CMD@CPFsAccountLog@@QAEHPAUNETPACKET@@H@Z`
`?fc_NC_MISC_HEARTBEAT_ACK@CPFs@@QAEHPAUNETPACKET@@H@Z`
`?fc_NC_MISC_HEARTBEAT_REQ@CPFs@@QAEHPAUNETPACKET@@H@Z`
`?fc_NC_MISC_S2SCONNECTION_ACK@CPFs@@QAEHPAUNETPACKET@@H@Z`
`?fc_NC_MISC_S2SCONNECTION_RDY@CPFs@@QAEHPAUNETPACKET@@H@Z`
`?fc_NC_MISC_S2SCONNECTION_REQ@CPFs@@QAEHPAUNETPACKET@@H@Z`
`?fc_NC_MISC_START_THE_BOOM_CMD@CPFs@@QAEHPAUNETPACKET@@H@Z`
`?fc_NC_OPTOOL_CLOSE_SERVER_REQ@CPFs@@QAEHPAUNETPACKET@@H@Z`
`?fc_NC_OPTOOL_CONNECT_BRIF_REQ@CPFs@@QAEHPAUNETPACKET@@H@Z`
`?fc_NC_OPTOOL_MAP_USER_LIST_REQ@CPFs@@QAEHPAUNETPACKET@@H@Z`
`?fc_NC_OPTOOL_S2SCONNECT_LIST_REQ@CPFs@@QAEHPAUNETPACKET@@H@Z`
`?fc_NC_SYSLOG_ACCOUNT_LOGIN_FAILURE@CPFsAccountLog@@QAEHPAUNETPACKET@@H@Z`
`?fc_NC_SYSLOG_ACCOUNT_LOGIN_SUCCESS@CPFsAccountLog@@QAEHPAUNETPACKET@@H@Z`
`?fc_NC_SYSLOG_ACCOUNT_LOGOUT@CPFsAccountLog@@QAEHPAUNETPACKET@@H@Z`
`?fc_NC_SYSLOG_SERVER_CCU@CPFsAccountLog@@QAEHPAUNETPACKET@@H@Z`
`?fc_NC_USER_GER_IS_IP_BLOCK_REQ@CPFsAccountLog@@QAEHPAUNETPACKET@@H@Z`
`?fc_NC_USER_IS_IP_BLOCK_REQ@CPFsAccountLog@@QAEHPAUNETPACKET@@H@Z`
`?fc_NC_USER_JP_IS_IP_BLOCK_REQ@CPFsAccountLog@@QAEHPAUNETPACKET@@H@Z`
`?fc_NC_USER_LOGOUT_LAST_DAY_REQ@CPFsAccountLog@@QAEHPAUNETPACKET@@H@Z`
`?fc_NC_USER_TW_IS_IP_BLOCK_REQ@CPFsAccountLog@@QAEHPAUNETPACKET@@H@Z`
`?fc_NC_USER_US_IS_IP_BLOCK_REQ@CPFsAccountLog@@QAEHPAUNETPACKET@@H@Z`
`?fc_dummyfunction@CPFs@@QAEHPAUNETPACKET@@H@Z`
`?fclose@CGdp@@QAEHPAU_iobuf@@@Z`
`?fetch@DBRecord@@QAE_NXZ`
`?fprewarddata@@3VFPRewardData@@A`
`?gDebugMessageCounter@@3GA`
`?gName@UnDecorator@@0PBDB`
`?gServer@@3VDataServer@@A`
`?gShineGetRaceFromClassTable@@3PAEA`
`?gSocket_IOCP_Write@@3VcShineLogSystem@@A`
`?gZoneLinktoErrorLog@@3VcShineLogSystem@@A`
`?g_CardCollectMake@@YAEGPAUShineItemAttr_MobCardCollect_Unident@@@Z`
`?g_ItmBelongAttr@@3VItemBelongAttribute@@A`
`?gbDMVCICOP@@3HA`
`?getBuffer@String@@QAEPADXZ`
`?getInstance@?$Singleton@VWinService@@@@SAPAVWinService@@XZ`
`?getStatement@DBRecord@@QAEPAXXZ`
`?gpShineServerIDNames@@3PAPBDA`
`?gpShineServerIDShortNames@@3PAPBDA`
`?handleEnv@Database@@1PAXA`
`?handleEnvRef@Database@@1HA`
`?iac_ClearItemOptionUpgrade@ItemAttrCls_Amulet@@UAEXPAUSHINE_ITEM_STRUCT@@@Z`
`?iac_ClearItemOptionUpgrade@ItemAttributeClass@@UAEXPAUSHINE_ITEM_STRUCT@@@Z`
`?iac_DropItemMake@ItemAttrCls_ActiveSkill@@UAEEPAUItemTotalInformation@@PBUItemGroup@DropItemStruct@@HG@Z`
`?iac_DropItemMake@ItemAttrCls_Amulet@@UAEEPAUItemTotalInformation@@PBUItemGroup@DropItemStruct@@HG@Z`
`?iac_DropItemMake@ItemAttrCls_Armor@@UAEEPAUItemTotalInformation@@PBUItemGroup@DropItemStruct@@HG@Z`
`?iac_DropItemMake@ItemAttrCls_Boot@@UAEEPAUItemTotalInformation@@PBUItemGroup@DropItemStruct@@HG@Z`
`?iac_DropItemMake@ItemAttrCls_Bracelet@@UAEEPAUItemTotalInformation@@PBUItemGroup@DropItemStruct@@HG@Z`
`?iac_DropItemMake@ItemAttrCls_ByteLot@@UAEEPAUItemTotalInformation@@PBUItemGroup@DropItemStruct@@HG@Z`
`?iac_DropItemMake@ItemAttrCls_CardCollect@@UAEEPAUItemTotalInformation@@PBUItemGroup@DropItemStruct@@HG@Z`
`?iac_DropItemMake@ItemAttrCls_CardCollect_Close@@UAEEPAUItemTotalInformation@@PBUItemGroup@DropItemStruct@@HG@Z`
`?iac_DropItemMake@ItemAttrCls_DwrdLot@@UAEEPAUItemTotalInformation@@PBUItemGroup@DropItemStruct@@HG@Z`
`?iac_DropItemMake@ItemAttrCls_Enchant@@UAEEPAUItemTotalInformation@@PBUItemGroup@DropItemStruct@@HG@Z`
`?iac_DropItemMake@ItemAttrCls_Shield@@UAEEPAUItemTotalInformation@@PBUItemGroup@DropItemStruct@@HG@Z`
`?iac_DropItemMake@ItemAttrCls_Weapon@@UAEEPAUItemTotalInformation@@PBUItemGroup@DropItemStruct@@HG@Z`
`?iac_DropItemMake@ItemAttrCls_WordLot@@UAEEPAUItemTotalInformation@@PBUItemGroup@DropItemStruct@@HG@Z`
`?iac_DropItemMake@ItemAttributeClass@@UAEEPAUItemTotalInformation@@PBUItemGroup@DropItemStruct@@HG@Z`
`?iac_FoodEat@ItemAttrCls_Riding@@UAEXPAUItemTotalInformation@@HH@Z`
`?iac_FoodEat@ItemAttributeClass@@UAEXPAUItemTotalInformation@@HH@Z`
`?iac_GetAmount@ItemAttrCls_Amount@@UAEHPAUSHINE_ITEM_STRUCT@@@Z`
`?iac_GetAmount@ItemAttributeClass@@UAEHPAUSHINE_ITEM_STRUCT@@@Z`
`?iac_GetAttrSize@ItemAttrCls_ActionItem@@UAEKPATSHINE_ITEM_ATTRIBUTE@@@Z`
`?iac_GetAttrSize@ItemAttrCls_ActiveSkill@@UAEKPATSHINE_ITEM_ATTRIBUTE@@@Z`
`?iac_GetAttrSize@ItemAttrCls_Amount@@UAEKPATSHINE_ITEM_ATTRIBUTE@@@Z`
`?iac_GetAttrSize@ItemAttrCls_Amulet@@UAEKPATSHINE_ITEM_ATTRIBUTE@@@Z`
`?iac_GetAttrSize@ItemAttrCls_Armor@@UAEKPATSHINE_ITEM_ATTRIBUTE@@@Z`
`?iac_GetAttrSize@ItemAttrCls_BindItem@@UAEKPATSHINE_ITEM_ATTRIBUTE@@@Z`
`?iac_GetAttrSize@ItemAttrCls_Boot@@UAEKPATSHINE_ITEM_ATTRIBUTE@@@Z`
`?iac_GetAttrSize@ItemAttrCls_Bracelet@@UAEKPATSHINE_ITEM_ATTRIBUTE@@@Z`
`?iac_GetAttrSize@ItemAttrCls_ByteLot@@UAEKPATSHINE_ITEM_ATTRIBUTE@@@Z`
`?iac_GetAttrSize@ItemAttrCls_Capsule@@UAEKPATSHINE_ITEM_ATTRIBUTE@@@Z`
`?iac_GetAttrSize@ItemAttrCls_CardCollect@@UAEKPATSHINE_ITEM_ATTRIBUTE@@@Z`
`?iac_GetAttrSize@ItemAttrCls_CardCollect_Close@@UAEKPATSHINE_ITEM_ATTRIBUTE@@@Z`
`?iac_GetAttrSize@ItemAttrCls_Decoration@@UAEKPATSHINE_ITEM_ATTRIBUTE@@@Z`
`?iac_GetAttrSize@ItemAttrCls_DwrdLot@@UAEKPATSHINE_ITEM_ATTRIBUTE@@@Z`
`?iac_GetAttrSize@ItemAttrCls_Enchant@@UAEKPATSHINE_ITEM_ATTRIBUTE@@@Z`
`?iac_GetAttrSize@ItemAttrCls_Furniture@@UAEKPATSHINE_ITEM_ATTRIBUTE@@@Z`
`?iac_GetAttrSize@ItemAttrCls_GBCoin@@UAEKPATSHINE_ITEM_ATTRIBUTE@@@Z`
`?iac_GetAttrSize@ItemAttrCls_ItemChest@@UAEKPATSHINE_ITEM_ATTRIBUTE@@@Z`
`?iac_GetAttrSize@ItemAttrCls_MiniHouseSkin@@UAEKPATSHINE_ITEM_ATTRIBUTE@@@Z`
`?iac_GetAttrSize@ItemAttrCls_Pet@@UAEKPATSHINE_ITEM_ATTRIBUTE@@@Z`
`?iac_GetAttrSize@ItemAttrCls_QuestLot@@UAEKPATSHINE_ITEM_ATTRIBUTE@@@Z`
`?iac_GetAttrSize@ItemAttrCls_Riding@@UAEKPATSHINE_ITEM_ATTRIBUTE@@@Z`
`?iac_GetAttrSize@ItemAttrCls_Shield@@UAEKPATSHINE_ITEM_ATTRIBUTE@@@Z`
`?iac_GetAttrSize@ItemAttrCls_SkillScroll@@UAEKPATSHINE_ITEM_ATTRIBUTE@@@Z`
`?iac_GetAttrSize@ItemAttrCls_Weapon@@UAEKPATSHINE_ITEM_ATTRIBUTE@@@Z`
`?iac_GetAttrSize@ItemAttrCls_WeaponTitlaLicence@@UAEKPATSHINE_ITEM_ATTRIBUTE@@@Z`
`?iac_GetAttrSize@ItemAttrCls_WordLot@@UAEKPATSHINE_ITEM_ATTRIBUTE@@@Z`
`?iac_GetAttrSize@ItemAttributeClass@@UAEKPATSHINE_ITEM_ATTRIBUTE@@@Z`
`?iac_GetChargedNumber@ItemAttrCls_CostumShield@@UAEHPAUItemTotalInformation@@@Z`
`?iac_GetChargedNumber@ItemAttrCls_CostumWeapon@@UAEHPAUItemTotalInformation@@@Z`
`?iac_GetChargedNumber@ItemAttributeClass@@UAEHPAUItemTotalInformation@@@Z`
`?iac_GetDeteleDateTime@ItemAttrCls_ActionItem@@UAEPAUShineDateTime@@PAUSHINE_ITEM_STRUCT@@@Z`
`?iac_GetDeteleDateTime@ItemAttrCls_Amulet@@UAEPAUShineDateTime@@PAUSHINE_ITEM_STRUCT@@@Z`
`?iac_GetDeteleDateTime@ItemAttrCls_Armor@@UAEPAUShineDateTime@@PAUSHINE_ITEM_STRUCT@@@Z`
`?iac_GetDeteleDateTime@ItemAttrCls_Boot@@UAEPAUShineDateTime@@PAUSHINE_ITEM_STRUCT@@@Z`
`?iac_GetDeteleDateTime@ItemAttrCls_Bracelet@@UAEPAUShineDateTime@@PAUSHINE_ITEM_STRUCT@@@Z`
`?iac_GetDeteleDateTime@ItemAttrCls_Decoration@@UAEPAUShineDateTime@@PAUSHINE_ITEM_STRUCT@@@Z`
`?iac_GetDeteleDateTime@ItemAttrCls_Furniture@@UAEPAUShineDateTime@@PAUSHINE_ITEM_STRUCT@@@Z`
`?iac_GetDeteleDateTime@ItemAttrCls_MiniHouseSkin@@UAEPAUShineDateTime@@PAUSHINE_ITEM_STRUCT@@@Z`
`?iac_GetDeteleDateTime@ItemAttrCls_Riding@@UAEPAUShineDateTime@@PAUSHINE_ITEM_STRUCT@@@Z`
`?iac_GetDeteleDateTime@ItemAttrCls_Shield@@UAEPAUShineDateTime@@PAUSHINE_ITEM_STRUCT@@@Z`
`?iac_GetDeteleDateTime@ItemAttrCls_Weapon@@UAEPAUShineDateTime@@PAUSHINE_ITEM_STRUCT@@@Z`
`?iac_GetDeteleDateTime@ItemAttributeClass@@UAEPAUShineDateTime@@PAUSHINE_ITEM_STRUCT@@@Z`
`?iac_GetDuringRide@ItemAttrCls_Riding@@UAEEPBUSHINE_ITEM_STRUCT@@@Z`
`?iac_GetDuringRide@ItemAttributeClass@@UAEEPBUSHINE_ITEM_STRUCT@@@Z`
`?iac_GetEndureEndTime@ItemAttrCls_Furniture@@UAEPAUShineDateTime@@PAUSHINE_ITEM_STRUCT@@@Z`
`?iac_GetEndureEndTime@ItemAttributeClass@@UAEPAUShineDateTime@@PAUSHINE_ITEM_STRUCT@@@Z`
`?iac_GetGrade@ItemAttrCls_Riding@@UAEEPAUItemTotalInformation@@@Z`
`?iac_GetGrade@ItemAttributeClass@@UAEEPAUItemTotalInformation@@@Z`
`?iac_GetHP@ItemAttrCls_Riding@@UAEKPAUItemTotalInformation@@@Z`
`?iac_GetHP@ItemAttributeClass@@UAEKPAUItemTotalInformation@@@Z`
`?iac_GetHungry@ItemAttrCls_Riding@@UAEHPAUItemTotalInformation@@@Z`
`?iac_GetHungry@ItemAttributeClass@@UAEHPAUItemTotalInformation@@@Z`
`?iac_GetIsPutOnBelonged@ItemAttrCls_Amulet@@UAE?AW4SHINE_PUT_ON_BELONGED_ITEM@@PAUItemTotalInformation@@@Z`
`?iac_GetIsPutOnBelonged@ItemAttrCls_Armor@@UAE?AW4SHINE_PUT_ON_BELONGED_ITEM@@PAUItemTotalInformation@@@Z`
`?iac_GetIsPutOnBelonged@ItemAttrCls_Boot@@UAE?AW4SHINE_PUT_ON_BELONGED_ITEM@@PAUItemTotalInformation@@@Z`
`?iac_GetIsPutOnBelonged@ItemAttrCls_Bracelet@@UAE?AW4SHINE_PUT_ON_BELONGED_ITEM@@PAUItemTotalInformation@@@Z`
`?iac_GetIsPutOnBelonged@ItemAttrCls_Decoration@@UAE?AW4SHINE_PUT_ON_BELONGED_ITEM@@PAUItemTotalInformation@@@Z`
`?iac_GetIsPutOnBelonged@ItemAttrCls_Riding@@UAE?AW4SHINE_PUT_ON_BELONGED_ITEM@@PAUItemTotalInformation@@@Z`
`?iac_GetIsPutOnBelonged@ItemAttrCls_Shield@@UAE?AW4SHINE_PUT_ON_BELONGED_ITEM@@PAUItemTotalInformation@@@Z`
`?iac_GetIsPutOnBelonged@ItemAttrCls_Weapon@@UAE?AW4SHINE_PUT_ON_BELONGED_ITEM@@PAUItemTotalInformation@@@Z`
`?iac_GetIsPutOnBelonged@ItemAttributeClass@@UAE?AW4SHINE_PUT_ON_BELONGED_ITEM@@PAUItemTotalInformation@@@Z`
`?iac_GetItemOptionStruct@ItemAttrCls_Amulet@@UAEPAUItemOptionStorage@@PAUSHINE_ITEM_STRUCT@@@Z`
`?iac_GetItemOptionStruct@ItemAttrCls_Armor@@UAEPAUItemOptionStorage@@PAUSHINE_ITEM_STRUCT@@@Z`
`?iac_GetItemOptionStruct@ItemAttrCls_Boot@@UAEPAUItemOptionStorage@@PAUSHINE_ITEM_STRUCT@@@Z`
`?iac_GetItemOptionStruct@ItemAttrCls_Bracelet@@UAEPAUItemOptionStorage@@PAUSHINE_ITEM_STRUCT@@@Z`
`?iac_GetItemOptionStruct@ItemAttrCls_Shield@@UAEPAUItemOptionStorage@@PAUSHINE_ITEM_STRUCT@@@Z`
`?iac_GetItemOptionStruct@ItemAttrCls_Weapon@@UAEPAUItemOptionStorage@@PAUSHINE_ITEM_STRUCT@@@Z`
`?iac_GetItemOptionStruct@ItemAttributeClass@@UAEPAUItemOptionStorage@@PAUSHINE_ITEM_STRUCT@@@Z`
`?iac_GetItemOptionUpgrade@ItemAttrCls_Amulet@@UAEGPAUSHINE_ITEM_STRUCT@@E@Z`
`?iac_GetItemOptionUpgrade@ItemAttributeClass@@UAEGPAUSHINE_ITEM_STRUCT@@E@Z`
`?iac_GetLot@ItemAttrCls_ActiveSkill@@UAEKPBUSHINE_ITEM_STRUCT@@@Z`
`?iac_GetLot@ItemAttrCls_ByteLot@@UAEKPBUSHINE_ITEM_STRUCT@@@Z`
`?iac_GetLot@ItemAttrCls_DwrdLot@@UAEKPBUSHINE_ITEM_STRUCT@@@Z`
`?iac_GetLot@ItemAttrCls_Enchant@@UAEKPBUSHINE_ITEM_STRUCT@@@Z`
`?iac_GetLot@ItemAttrCls_QuestLot@@UAEKPBUSHINE_ITEM_STRUCT@@@Z`
`?iac_GetLot@ItemAttrCls_WordLot@@UAEKPBUSHINE_ITEM_STRUCT@@@Z`
`?iac_GetLot@ItemAttributeClass@@UAEKPBUSHINE_ITEM_STRUCT@@@Z`
`?iac_GetRandomOptionChangeCount@ItemAttrCls_Amulet@@UAEEPAUSHINE_ITEM_STRUCT@@@Z`
`?iac_GetRandomOptionChangeCount@ItemAttrCls_Armor@@UAEEPAUSHINE_ITEM_STRUCT@@@Z`
`?iac_GetRandomOptionChangeCount@ItemAttrCls_Boot@@UAEEPAUSHINE_ITEM_STRUCT@@@Z`
`?iac_GetRandomOptionChangeCount@ItemAttrCls_Bracelet@@UAEEPAUSHINE_ITEM_STRUCT@@@Z`
`?iac_GetRandomOptionChangeCount@ItemAttrCls_Shield@@UAEEPAUSHINE_ITEM_STRUCT@@@Z`
`?iac_GetRandomOptionChangeCount@ItemAttrCls_Weapon@@UAEEPAUSHINE_ITEM_STRUCT@@@Z`
`?iac_GetRandomOptionChangeCount@ItemAttributeClass@@UAEEPAUSHINE_ITEM_STRUCT@@@Z`
`?iac_GetRareFailCount@ItemAttrCls_Riding@@UAEGPAUItemTotalInformation@@@Z`
`?iac_GetRareFailCount@ItemAttributeClass@@UAEGPAUItemTotalInformation@@@Z`
`?iac_GetUseableDateTime@ItemAttrCls_Capsule@@UAEPAUShineDateTime@@PAUSHINE_ITEM_STRUCT@@@Z`
`?iac_GetUseableDateTime@ItemAttributeClass@@UAEPAUShineDateTime@@PAUSHINE_ITEM_STRUCT@@@Z`
`?iac_Getitemchest@ItemAttrCls_ItemChest@@UAEPAUShineItemAttr_ItemChest@@PAUItemTotalInformation@@@Z`
`?iac_Getitemchest@ItemAttributeClass@@UAEPAUShineItemAttr_ItemChest@@PAUItemTotalInformation@@@Z`
`?iac_Getupgrade@ItemAttrCls_Amulet@@UAEHPAUItemTotalInformation@@@Z`
`?iac_Getupgrade@ItemAttrCls_Armor@@UAEHPAUItemTotalInformation@@@Z`
`?iac_Getupgrade@ItemAttrCls_Boot@@UAEHPAUItemTotalInformation@@@Z`
`?iac_Getupgrade@ItemAttrCls_Bracelet@@UAEHPAUItemTotalInformation@@@Z`
`?iac_Getupgrade@ItemAttrCls_Shield@@UAEHPAUItemTotalInformation@@@Z`
`?iac_Getupgrade@ItemAttrCls_Weapon@@UAEHPAUItemTotalInformation@@@Z`
`?iac_Getupgrade@ItemAttributeClass@@UAEHPAUItemTotalInformation@@@Z`
`?iac_ItemClass@ItemAttrCls_ActionItem@@UAEHXZ`
`?iac_ItemClass@ItemAttrCls_ActiveSkill@@UAEHXZ`
`?iac_ItemClass@ItemAttrCls_Amount@@UAEHXZ`
`?iac_ItemClass@ItemAttrCls_Amulet@@UAEHXZ`
`?iac_ItemClass@ItemAttrCls_Armor@@UAEHXZ`
`?iac_ItemClass@ItemAttrCls_BindItem@@UAEHXZ`
`?iac_ItemClass@ItemAttrCls_Boot@@UAEHXZ`
`?iac_ItemClass@ItemAttrCls_Bracelet@@UAEHXZ`
`?iac_ItemClass@ItemAttrCls_ByteLot@@UAEHXZ`
`?iac_ItemClass@ItemAttrCls_Capsule@@UAEHXZ`
`?iac_ItemClass@ItemAttrCls_CardCollect@@UAEHXZ`
`?iac_ItemClass@ItemAttrCls_CardCollect_Close@@UAEHXZ`
`?iac_ItemClass@ItemAttrCls_CostumShield@@UAEHXZ`
`?iac_ItemClass@ItemAttrCls_CostumWeapon@@UAEHXZ`
`?iac_ItemClass@ItemAttrCls_Decoration@@UAEHXZ`
`?iac_ItemClass@ItemAttrCls_DwrdLot@@UAEHXZ`
`?iac_ItemClass@ItemAttrCls_Enchant@@UAEHXZ`
`?iac_ItemClass@ItemAttrCls_Feed@@UAEHXZ`
`?iac_ItemClass@ItemAttrCls_Furniture@@UAEHXZ`
`?iac_ItemClass@ItemAttrCls_GBCoin@@UAEHXZ`
`?iac_ItemClass@ItemAttrCls_ItemChest@@UAEHXZ`
`?iac_ItemClass@ItemAttrCls_KQStep@@UAEHXZ`
`?iac_ItemClass@ItemAttrCls_KingdomQuestItem@@UAEHXZ`
`?iac_ItemClass@ItemAttrCls_MiniHouseSkin@@UAEHXZ`
`?iac_ItemClass@ItemAttrCls_NoEffect@@UAEHXZ`
`?iac_ItemClass@ItemAttrCls_Pet@@UAEHXZ`
`?iac_ItemClass@ItemAttrCls_QuestLot@@UAEHXZ`
`?iac_ItemClass@ItemAttrCls_RecallScroll@@UAEHXZ`
`?iac_ItemClass@ItemAttrCls_Riding@@UAEHXZ`
`?iac_ItemClass@ItemAttrCls_Shield@@UAEHXZ`
`?iac_ItemClass@ItemAttrCls_SkillScroll@@UAEHXZ`
`?iac_ItemClass@ItemAttrCls_UpSource@@UAEHXZ`
`?iac_ItemClass@ItemAttrCls_UpgradeBlueGem@@UAEHXZ`
`?iac_ItemClass@ItemAttrCls_UpgradeGoldGem@@UAEHXZ`
`?iac_ItemClass@ItemAttrCls_UpgradeRedGem@@UAEHXZ`
`?iac_ItemClass@ItemAttrCls_Weapon@@UAEHXZ`
`?iac_ItemClass@ItemAttrCls_WeaponTitlaLicence@@UAEHXZ`
`?iac_ItemClass@ItemAttrCls_WordLot@@UAEHXZ`
`?iac_ItemClass@ItemAttributeClass@@UAEHXZ`
`?iac_SetAmount@ItemAttrCls_Amount@@UAEXPAUSHINE_ITEM_STRUCT@@H@Z`
`?iac_SetAmount@ItemAttributeClass@@UAEXPAUSHINE_ITEM_STRUCT@@H@Z`
`?iac_SetChargedNumber@ItemAttrCls_CostumShield@@UAEXPAUItemTotalInformation@@H@Z`
`?iac_SetChargedNumber@ItemAttrCls_CostumWeapon@@UAEXPAUItemTotalInformation@@H@Z`
`?iac_SetChargedNumber@ItemAttributeClass@@UAEXPAUItemTotalInformation@@H@Z`
`?iac_SetDeteleDateTime@ItemAttrCls_ActionItem@@UAEPAUShineDateTime@@PAUSHINE_ITEM_STRUCT@@HPBUtm@@H@Z`
`?iac_SetDeteleDateTime@ItemAttrCls_MiniHouseSkin@@UAEPAUShineDateTime@@PAUSHINE_ITEM_STRUCT@@HPBUtm@@H@Z`
`?iac_SetDeteleDateTime@ItemAttrCls_Riding@@UAEPAUShineDateTime@@PAUSHINE_ITEM_STRUCT@@HPBUtm@@H@Z`
`?iac_SetDeteleDateTime@ItemAttributeClass@@UAEPAUShineDateTime@@PAUSHINE_ITEM_STRUCT@@HPBUtm@@H@Z`
`?iac_SetDuringRide@ItemAttrCls_Riding@@UAEXPAUSHINE_ITEM_STRUCT@@E@Z`
`?iac_SetDuringRide@ItemAttributeClass@@UAEXPAUSHINE_ITEM_STRUCT@@E@Z`
`?iac_SetEndTime@ItemAttributeClass@@QAEXPAUShineDateTime@@HPBUtm@@H@Z`
`?iac_SetEndureEndTime@ItemAttrCls_Furniture@@UAEHPAUItemTotalInformation@@GGPBUtm@@@Z`
`?iac_SetEndureEndTime@ItemAttrCls_Furniture@@UAEHPAUItemTotalInformation@@PAUShineDateTime@@@Z`
`?iac_SetEndureEndTime@ItemAttributeClass@@UAEHPAUItemTotalInformation@@GGPBUtm@@@Z`
`?iac_SetEndureEndTime@ItemAttributeClass@@UAEHPAUItemTotalInformation@@PAUShineDateTime@@@Z`
`?iac_SetEndureGrade@ItemAttrCls_Furniture@@UAEXPAUItemTotalInformation@@E@Z`
`?iac_SetEndureGrade@ItemAttributeClass@@UAEXPAUItemTotalInformation@@E@Z`
`?iac_SetFurnitureKey@ItemAttrCls_Furniture@@UAEXPAUItemTotalInformation@@G@Z`
`?iac_SetFurnitureKey@ItemAttributeClass@@UAEXPAUItemTotalInformation@@G@Z`
`?iac_SetGrade@ItemAttrCls_Riding@@UAEXPAUItemTotalInformation@@E@Z`
`?iac_SetGrade@ItemAttributeClass@@UAEXPAUItemTotalInformation@@E@Z`
`?iac_SetHP@ItemAttrCls_Riding@@UAEXPAUItemTotalInformation@@K@Z`
`?iac_SetHP@ItemAttributeClass@@UAEXPAUItemTotalInformation@@K@Z`
`?iac_SetIsPutOnBelonged@ItemAttrCls_Amulet@@UAEHPAUItemTotalInformation@@W4SHINE_PUT_ON_BELONGED_ITEM@@@Z`
`?iac_SetIsPutOnBelonged@ItemAttrCls_Armor@@UAEHPAUItemTotalInformation@@W4SHINE_PUT_ON_BELONGED_ITEM@@@Z`
`?iac_SetIsPutOnBelonged@ItemAttrCls_Boot@@UAEHPAUItemTotalInformation@@W4SHINE_PUT_ON_BELONGED_ITEM@@@Z`
`?iac_SetIsPutOnBelonged@ItemAttrCls_Bracelet@@UAEHPAUItemTotalInformation@@W4SHINE_PUT_ON_BELONGED_ITEM@@@Z`
`?iac_SetIsPutOnBelonged@ItemAttrCls_Decoration@@UAEHPAUItemTotalInformation@@W4SHINE_PUT_ON_BELONGED_ITEM@@@Z`
`?iac_SetIsPutOnBelonged@ItemAttrCls_Riding@@UAEHPAUItemTotalInformation@@W4SHINE_PUT_ON_BELONGED_ITEM@@@Z`
`?iac_SetIsPutOnBelonged@ItemAttrCls_Shield@@UAEHPAUItemTotalInformation@@W4SHINE_PUT_ON_BELONGED_ITEM@@@Z`
`?iac_SetIsPutOnBelonged@ItemAttrCls_Weapon@@UAEHPAUItemTotalInformation@@W4SHINE_PUT_ON_BELONGED_ITEM@@@Z`
`?iac_SetIsPutOnBelonged@ItemAttributeClass@@UAEHPAUItemTotalInformation@@W4SHINE_PUT_ON_BELONGED_ITEM@@@Z`
`?iac_SetItemOptionUpgrade@ItemAttrCls_Amulet@@UAEXPAUSHINE_ITEM_STRUCT@@EG@Z`
`?iac_SetItemOptionUpgrade@ItemAttributeClass@@UAEXPAUSHINE_ITEM_STRUCT@@EG@Z`
`?iac_SetLot@ItemAttrCls_ActiveSkill@@UAEXPAUSHINE_ITEM_STRUCT@@K@Z`
`?iac_SetLot@ItemAttrCls_ByteLot@@UAEXPAUSHINE_ITEM_STRUCT@@K@Z`
`?iac_SetLot@ItemAttrCls_DwrdLot@@UAEXPAUSHINE_ITEM_STRUCT@@K@Z`
`?iac_SetLot@ItemAttrCls_Enchant@@UAEXPAUSHINE_ITEM_STRUCT@@K@Z`
`?iac_SetLot@ItemAttrCls_QuestLot@@UAEXPAUSHINE_ITEM_STRUCT@@K@Z`
`?iac_SetLot@ItemAttrCls_WordLot@@UAEXPAUSHINE_ITEM_STRUCT@@K@Z`
`?iac_SetLot@ItemAttributeClass@@UAEXPAUSHINE_ITEM_STRUCT@@K@Z`
`?iac_SetRandomOptionChangeCount@ItemAttrCls_Amulet@@UAEXPAUSHINE_ITEM_STRUCT@@E@Z`
`?iac_SetRandomOptionChangeCount@ItemAttrCls_Armor@@UAEXPAUSHINE_ITEM_STRUCT@@E@Z`
`?iac_SetRandomOptionChangeCount@ItemAttrCls_Boot@@UAEXPAUSHINE_ITEM_STRUCT@@E@Z`
`?iac_SetRandomOptionChangeCount@ItemAttrCls_Bracelet@@UAEXPAUSHINE_ITEM_STRUCT@@E@Z`
`?iac_SetRandomOptionChangeCount@ItemAttrCls_Shield@@UAEXPAUSHINE_ITEM_STRUCT@@E@Z`
`?iac_SetRandomOptionChangeCount@ItemAttrCls_Weapon@@UAEXPAUSHINE_ITEM_STRUCT@@E@Z`
`?iac_SetRandomOptionChangeCount@ItemAttributeClass@@UAEXPAUSHINE_ITEM_STRUCT@@E@Z`
`?iac_SetRareFailCount@ItemAttrCls_Riding@@UAEXPAUItemTotalInformation@@G@Z`
`?iac_SetRareFailCount@ItemAttributeClass@@UAEXPAUItemTotalInformation@@G@Z`
`?iac_SetUseableDateTime@ItemAttrCls_Capsule@@UAEPAUShineDateTime@@PAUSHINE_ITEM_STRUCT@@HPBUtm@@H@Z`
`?iac_SetUseableDateTime@ItemAttributeClass@@UAEPAUShineDateTime@@PAUSHINE_ITEM_STRUCT@@HPBUtm@@H@Z`
`?iac_Setoption@ItemAttributeClass@@QAEXPAUItemOptionStorage@@PAD@Z`
`?iac_StepGet@ItemAttrCls_KQStep@@UAEHPAUSHINE_ITEM_STRUCT@@@Z`
`?iac_StepGet@ItemAttributeClass@@UAEHPAUSHINE_ITEM_STRUCT@@@Z`
`?iac_equipbriefinfo@ItemAttrCls_Amulet@@UAEHGPATNETCOMMAND@@PAUSHINE_ITEM_STRUCT@@HPAGPAE@Z`
`?iac_equipbriefinfo@ItemAttrCls_Armor@@UAEHGPATNETCOMMAND@@PAUSHINE_ITEM_STRUCT@@HPAGPAE@Z`
`?iac_equipbriefinfo@ItemAttrCls_Boot@@UAEHGPATNETCOMMAND@@PAUSHINE_ITEM_STRUCT@@HPAGPAE@Z`
`?iac_equipbriefinfo@ItemAttrCls_Bracelet@@UAEHGPATNETCOMMAND@@PAUSHINE_ITEM_STRUCT@@HPAGPAE@Z`
`?iac_equipbriefinfo@ItemAttrCls_CostumShield@@UAEHGPATNETCOMMAND@@PAUSHINE_ITEM_STRUCT@@HPAGPAE@Z`
`?iac_equipbriefinfo@ItemAttrCls_CostumWeapon@@UAEHGPATNETCOMMAND@@PAUSHINE_ITEM_STRUCT@@HPAGPAE@Z`
`?iac_equipbriefinfo@ItemAttrCls_Decoration@@UAEHGPATNETCOMMAND@@PAUSHINE_ITEM_STRUCT@@HPAGPAE@Z`
`?iac_equipbriefinfo@ItemAttrCls_Shield@@UAEHGPATNETCOMMAND@@PAUSHINE_ITEM_STRUCT@@HPAGPAE@Z`
`?iac_equipbriefinfo@ItemAttrCls_Weapon@@UAEHGPATNETCOMMAND@@PAUSHINE_ITEM_STRUCT@@HPAGPAE@Z`
`?iac_equipbriefinfo@ItemAttributeClass@@UAEHGPATNETCOMMAND@@PAUSHINE_ITEM_STRUCT@@HPAGPAE@Z`
`?iac_fill2buffer@ItemAttrCls_ActionItem@@UAEPAEPBUSHINE_ITEM_STRUCT@@PAE@Z`
`?iac_fill2buffer@ItemAttrCls_ActiveSkill@@UAEPAEPBUSHINE_ITEM_STRUCT@@PAE@Z`
`?iac_fill2buffer@ItemAttrCls_Amount@@UAEPAEPBUSHINE_ITEM_STRUCT@@PAE@Z`
`?iac_fill2buffer@ItemAttrCls_Amulet@@UAEPAEPBUSHINE_ITEM_STRUCT@@PAE@Z`
`?iac_fill2buffer@ItemAttrCls_Armor@@UAEPAEPBUSHINE_ITEM_STRUCT@@PAE@Z`
`?iac_fill2buffer@ItemAttrCls_BindItem@@UAEPAEPBUSHINE_ITEM_STRUCT@@PAE@Z`
`?iac_fill2buffer@ItemAttrCls_Boot@@UAEPAEPBUSHINE_ITEM_STRUCT@@PAE@Z`
`?iac_fill2buffer@ItemAttrCls_Bracelet@@UAEPAEPBUSHINE_ITEM_STRUCT@@PAE@Z`
`?iac_fill2buffer@ItemAttrCls_ByteLot@@UAEPAEPBUSHINE_ITEM_STRUCT@@PAE@Z`
`?iac_fill2buffer@ItemAttrCls_Capsule@@UAEPAEPBUSHINE_ITEM_STRUCT@@PAE@Z`
`?iac_fill2buffer@ItemAttrCls_CardCollect@@UAEPAEPBUSHINE_ITEM_STRUCT@@PAE@Z`
`?iac_fill2buffer@ItemAttrCls_CardCollect_Close@@UAEPAEPBUSHINE_ITEM_STRUCT@@PAE@Z`
`?iac_fill2buffer@ItemAttrCls_CostumShield@@UAEPAEPBUSHINE_ITEM_STRUCT@@PAE@Z`
`?iac_fill2buffer@ItemAttrCls_CostumWeapon@@UAEPAEPBUSHINE_ITEM_STRUCT@@PAE@Z`
`?iac_fill2buffer@ItemAttrCls_Decoration@@UAEPAEPBUSHINE_ITEM_STRUCT@@PAE@Z`
`?iac_fill2buffer@ItemAttrCls_DwrdLot@@UAEPAEPBUSHINE_ITEM_STRUCT@@PAE@Z`
`?iac_fill2buffer@ItemAttrCls_Enchant@@UAEPAEPBUSHINE_ITEM_STRUCT@@PAE@Z`
`?iac_fill2buffer@ItemAttrCls_Furniture@@UAEPAEPBUSHINE_ITEM_STRUCT@@PAE@Z`
`?iac_fill2buffer@ItemAttrCls_GBCoin@@UAEPAEPBUSHINE_ITEM_STRUCT@@PAE@Z`
`?iac_fill2buffer@ItemAttrCls_ItemChest@@UAEPAEPBUSHINE_ITEM_STRUCT@@PAE@Z`
`?iac_fill2buffer@ItemAttrCls_MiniHouseSkin@@UAEPAEPBUSHINE_ITEM_STRUCT@@PAE@Z`
`?iac_fill2buffer@ItemAttrCls_Pet@@UAEPAEPBUSHINE_ITEM_STRUCT@@PAE@Z`
`?iac_fill2buffer@ItemAttrCls_QuestLot@@UAEPAEPBUSHINE_ITEM_STRUCT@@PAE@Z`
`?iac_fill2buffer@ItemAttrCls_Riding@@UAEPAEPBUSHINE_ITEM_STRUCT@@PAE@Z`
`?iac_fill2buffer@ItemAttrCls_Shield@@UAEPAEPBUSHINE_ITEM_STRUCT@@PAE@Z`
`?iac_fill2buffer@ItemAttrCls_SkillScroll@@UAEPAEPBUSHINE_ITEM_STRUCT@@PAE@Z`
`?iac_fill2buffer@ItemAttrCls_Weapon@@UAEPAEPBUSHINE_ITEM_STRUCT@@PAE@Z`
`?iac_fill2buffer@ItemAttrCls_WeaponTitlaLicence@@UAEPAEPBUSHINE_ITEM_STRUCT@@PAE@Z`
`?iac_fill2buffer@ItemAttrCls_WordLot@@UAEPAEPBUSHINE_ITEM_STRUCT@@PAE@Z`
`?iac_fill2buffer@ItemAttributeClass@@UAEPAEPBUSHINE_ITEM_STRUCT@@PAE@Z`
`?iac_fill2struct@ItemAttrCls_ActionItem@@UAEPAEPAUSHINE_ITEM_STRUCT@@PAE@Z`
`?iac_fill2struct@ItemAttrCls_ActiveSkill@@UAEPAEPAUSHINE_ITEM_STRUCT@@PAE@Z`
`?iac_fill2struct@ItemAttrCls_Amount@@UAEPAEPAUSHINE_ITEM_STRUCT@@PAE@Z`
`?iac_fill2struct@ItemAttrCls_Amulet@@UAEPAEPAUSHINE_ITEM_STRUCT@@PAE@Z`
`?iac_fill2struct@ItemAttrCls_Armor@@UAEPAEPAUSHINE_ITEM_STRUCT@@PAE@Z`
`?iac_fill2struct@ItemAttrCls_BindItem@@UAEPAEPAUSHINE_ITEM_STRUCT@@PAE@Z`
`?iac_fill2struct@ItemAttrCls_Boot@@UAEPAEPAUSHINE_ITEM_STRUCT@@PAE@Z`
`?iac_fill2struct@ItemAttrCls_Bracelet@@UAEPAEPAUSHINE_ITEM_STRUCT@@PAE@Z`
`?iac_fill2struct@ItemAttrCls_ByteLot@@UAEPAEPAUSHINE_ITEM_STRUCT@@PAE@Z`
`?iac_fill2struct@ItemAttrCls_Capsule@@UAEPAEPAUSHINE_ITEM_STRUCT@@PAE@Z`
`?iac_fill2struct@ItemAttrCls_CardCollect@@UAEPAEPAUSHINE_ITEM_STRUCT@@PAE@Z`
`?iac_fill2struct@ItemAttrCls_CardCollect_Close@@UAEPAEPAUSHINE_ITEM_STRUCT@@PAE@Z`
`?iac_fill2struct@ItemAttrCls_CostumShield@@UAEPAEPAUSHINE_ITEM_STRUCT@@PAE@Z`
`?iac_fill2struct@ItemAttrCls_CostumWeapon@@UAEPAEPAUSHINE_ITEM_STRUCT@@PAE@Z`
`?iac_fill2struct@ItemAttrCls_Decoration@@UAEPAEPAUSHINE_ITEM_STRUCT@@PAE@Z`
`?iac_fill2struct@ItemAttrCls_DwrdLot@@UAEPAEPAUSHINE_ITEM_STRUCT@@PAE@Z`
`?iac_fill2struct@ItemAttrCls_Enchant@@UAEPAEPAUSHINE_ITEM_STRUCT@@PAE@Z`
`?iac_fill2struct@ItemAttrCls_Furniture@@UAEPAEPAUSHINE_ITEM_STRUCT@@PAE@Z`
`?iac_fill2struct@ItemAttrCls_GBCoin@@UAEPAEPAUSHINE_ITEM_STRUCT@@PAE@Z`
`?iac_fill2struct@ItemAttrCls_ItemChest@@UAEPAEPAUSHINE_ITEM_STRUCT@@PAE@Z`
`?iac_fill2struct@ItemAttrCls_MiniHouseSkin@@UAEPAEPAUSHINE_ITEM_STRUCT@@PAE@Z`
`?iac_fill2struct@ItemAttrCls_Pet@@UAEPAEPAUSHINE_ITEM_STRUCT@@PAE@Z`
`?iac_fill2struct@ItemAttrCls_QuestLot@@UAEPAEPAUSHINE_ITEM_STRUCT@@PAE@Z`
`?iac_fill2struct@ItemAttrCls_Riding@@UAEPAEPAUSHINE_ITEM_STRUCT@@PAE@Z`
`?iac_fill2struct@ItemAttrCls_Shield@@UAEPAEPAUSHINE_ITEM_STRUCT@@PAE@Z`
`?iac_fill2struct@ItemAttrCls_SkillScroll@@UAEPAEPAUSHINE_ITEM_STRUCT@@PAE@Z`
`?iac_fill2struct@ItemAttrCls_Weapon@@UAEPAEPAUSHINE_ITEM_STRUCT@@PAE@Z`
`?iac_fill2struct@ItemAttrCls_WeaponTitlaLicence@@UAEPAEPAUSHINE_ITEM_STRUCT@@PAE@Z`
`?iac_fill2struct@ItemAttrCls_WordLot@@UAEPAEPAUSHINE_ITEM_STRUCT@@PAE@Z`
`?iac_fill2struct@ItemAttributeClass@@UAEPAEPAUSHINE_ITEM_STRUCT@@PAE@Z`
`?iac_islotitem@ItemAttrCls_NotLot@@UAEEXZ`
`?iac_islotitem@ItemAttributeClass@@UAEEXZ`
`?iac_itemcreate@ItemAttrCls_ActionItem@@UAEXGPAUItemTotalInformation@@PAD@Z`
`?iac_itemcreate@ItemAttrCls_ActiveSkill@@UAEXGPAUItemTotalInformation@@PAD@Z`
`?iac_itemcreate@ItemAttrCls_ActiveSkill@@UAEXGPAUShineReward@@PAUItemTotalInformation@@@Z`
`?iac_itemcreate@ItemAttrCls_Amount@@UAEXGPAUItemTotalInformation@@PAD@Z`
`?iac_itemcreate@ItemAttrCls_Amulet@@UAEXGPAUItemTotalInformation@@PAD@Z`
`?iac_itemcreate@ItemAttrCls_Amulet@@UAEXGPAUShineReward@@PAUItemTotalInformation@@@Z`
`?iac_itemcreate@ItemAttrCls_Armor@@UAEXGPAUItemTotalInformation@@PAD@Z`
`?iac_itemcreate@ItemAttrCls_Armor@@UAEXGPAUShineReward@@PAUItemTotalInformation@@@Z`
`?iac_itemcreate@ItemAttrCls_BindItem@@UAEXGPAUItemTotalInformation@@PAD@Z`
`?iac_itemcreate@ItemAttrCls_Boot@@UAEXGPAUItemTotalInformation@@PAD@Z`
`?iac_itemcreate@ItemAttrCls_Boot@@UAEXGPAUShineReward@@PAUItemTotalInformation@@@Z`
`?iac_itemcreate@ItemAttrCls_Bracelet@@UAEXGPAUItemTotalInformation@@PAD@Z`
`?iac_itemcreate@ItemAttrCls_Bracelet@@UAEXGPAUShineReward@@PAUItemTotalInformation@@@Z`
`?iac_itemcreate@ItemAttrCls_ByteLot@@UAEXGPAUItemTotalInformation@@PAD@Z`
`?iac_itemcreate@ItemAttrCls_ByteLot@@UAEXGPAUShineReward@@PAUItemTotalInformation@@@Z`
`?iac_itemcreate@ItemAttrCls_Capsule@@UAEXGPAUItemTotalInformation@@PAD@Z`
`?iac_itemcreate@ItemAttrCls_CardCollect@@UAEXGPAUItemTotalInformation@@PAD@Z`
`?iac_itemcreate@ItemAttrCls_CardCollect_Close@@UAEXGPAUItemTotalInformation@@PAD@Z`
`?iac_itemcreate@ItemAttrCls_CostumShield@@UAEXGPAUItemTotalInformation@@PAD@Z`
`?iac_itemcreate@ItemAttrCls_CostumWeapon@@UAEXGPAUItemTotalInformation@@PAD@Z`
`?iac_itemcreate@ItemAttrCls_Decoration@@UAEXGPAUItemTotalInformation@@PAD@Z`
`?iac_itemcreate@ItemAttrCls_Decoration@@UAEXGPAUShineReward@@PAUItemTotalInformation@@@Z`
`?iac_itemcreate@ItemAttrCls_DwrdLot@@UAEXGPAUItemTotalInformation@@PAD@Z`
`?iac_itemcreate@ItemAttrCls_DwrdLot@@UAEXGPAUShineReward@@PAUItemTotalInformation@@@Z`
`?iac_itemcreate@ItemAttrCls_Enchant@@UAEXGPAUItemTotalInformation@@PAD@Z`
`?iac_itemcreate@ItemAttrCls_Enchant@@UAEXGPAUShineReward@@PAUItemTotalInformation@@@Z`
`?iac_itemcreate@ItemAttrCls_Furniture@@UAEXGPAUItemTotalInformation@@PAD@Z`
`?iac_itemcreate@ItemAttrCls_GBCoin@@UAEXGPAUItemTotalInformation@@PAD@Z`
`?iac_itemcreate@ItemAttrCls_ItemChest@@UAEXGPAUItemTotalInformation@@PAD@Z`
`?iac_itemcreate@ItemAttrCls_KQStep@@UAEXGPAUItemTotalInformation@@PAD@Z`
`?iac_itemcreate@ItemAttrCls_MiniHouseSkin@@UAEXGPAUItemTotalInformation@@PAD@Z`
`?iac_itemcreate@ItemAttrCls_NotLot@@UAEXGPAUItemTotalInformation@@PAD@Z`
`?iac_itemcreate@ItemAttrCls_Pet@@UAEXGPAUItemTotalInformation@@PAD@Z`
`?iac_itemcreate@ItemAttrCls_QuestLot@@UAEXGPAUItemTotalInformation@@PAD@Z`
`?iac_itemcreate@ItemAttrCls_QuestLot@@UAEXGPAUShineReward@@PAUItemTotalInformation@@@Z`
`?iac_itemcreate@ItemAttrCls_Riding@@UAEXGPAUItemTotalInformation@@PAD@Z`
`?iac_itemcreate@ItemAttrCls_Shield@@UAEXGPAUItemTotalInformation@@PAD@Z`
`?iac_itemcreate@ItemAttrCls_Shield@@UAEXGPAUShineReward@@PAUItemTotalInformation@@@Z`
`?iac_itemcreate@ItemAttrCls_SkillScroll@@UAEXGPAUItemTotalInformation@@PAD@Z`
`?iac_itemcreate@ItemAttrCls_Weapon@@UAEXGPAUItemTotalInformation@@PAD@Z`
`?iac_itemcreate@ItemAttrCls_Weapon@@UAEXGPAUShineReward@@PAUItemTotalInformation@@@Z`
`?iac_itemcreate@ItemAttrCls_WeaponTitlaLicence@@UAEXGPAUItemTotalInformation@@PAD@Z`
`?iac_itemcreate@ItemAttrCls_WordLot@@UAEXGPAUItemTotalInformation@@PAD@Z`
`?iac_itemcreate@ItemAttrCls_WordLot@@UAEXGPAUShineReward@@PAUItemTotalInformation@@@Z`
`?iac_itemcreate@ItemAttributeClass@@UAEXGPAUItemTotalInformation@@PAD@Z`
`?iac_itemcreate@ItemAttributeClass@@UAEXGPAUShineReward@@PAUItemTotalInformation@@@Z`
`?iac_wptitle_Getlicencemob@ItemAttrCls_WeaponTitlaLicence@@UAEGPAVMobDataBox@@PAVItemDataBox@@PAUItemTotalInformation@@@Z`
`?iac_wptitle_Getlicencemob@ItemAttributeClass@@UAEGPAVMobDataBox@@PAVItemDataBox@@PAUItemTotalInformation@@@Z`
`?iac_wptitle_Gettitle@ItemAttrCls_Weapon@@UAEPAY0BF@DPAUItemTotalInformation@@@Z`
`?iac_wptitle_Gettitle@ItemAttributeClass@@UAEPAY0BF@DPAUItemTotalInformation@@@Z`
`?iac_wptitle_Setlicense@ItemAttrCls_Weapon@@UAEHPAUItemTotalInformation@@GPATName5@@@Z`
`?iac_wptitle_Setlicense@ItemAttributeClass@@UAEHPAUItemTotalInformation@@GPATName5@@@Z`
`?iac_wptitle_Settitle@ItemAttrCls_Weapon@@UAE_NPAUItemTotalInformation@@KPAY0BF@D@Z`
`?iac_wptitle_Settitle@ItemAttributeClass@@UAE_NPAUItemTotalInformation@@KPAY0BF@D@Z`
`?iac_wptitle_mobkilladd@ItemAttrCls_Weapon@@UAEKPAUItemTotalInformation@@GK@Z`
`?iac_wptitle_mobkilladd@ItemAttributeClass@@UAEKPAUItemTotalInformation@@GK@Z`
`?iaib_Default@ItemActionItemBox@@0V?$ItemInventorySmallCell@UItemInform_ActionItem@@@@A`
`?ib_staticcell@ItemBag@@1VItemInventoryCell@@A`
`?id@?$codecvt@DDH@std@@2V0locale@2@A`
`?id@?$codecvt@GDH@std@@2V0locale@2@A`
`?id@?$codecvt@_WDH@std@@2V0locale@2@A`
`?id@?$ctype@D@std@@2V0locale@2@A`
`?id@?$ctype@G@std@@2V0locale@2@A`
`?id@?$ctype@_W@std@@2V0locale@2@A`
`?id@?$num_get@DV?$istreambuf_iterator@DU?$char_traits@D@std@@@std@@@std@@2V0locale@2@A`
`?id@?$num_put@DV?$ostreambuf_iterator@DU?$char_traits@D@std@@@std@@@std@@2V0locale@2@A`
`?id@?$numpunct@D@std@@2V0locale@2@A`
`?initialize@WinService@@UAEXXZ`
`?itemdatabox@@3VItemDataBox@@A`
`?itemoptiondata@@3VItemOptionsData@@A`
`?itmattcontainer@@3VItemAttributeClassContainer@@A`
`?l_4AllInList@?$List@UCard@CardDeck@@@@QAEEPAV?$ListIteratorDefault@UCard@CardDeck@@@@@Z`
`?l_AllocA@?$List@UCard@CardDeck@@@@UAEPAUCard@CardDeck@@G@Z`
`?l_AllocZ@?$List@UCard@CardDeck@@@@UAEPAUCard@CardDeck@@G@Z`
`?l_Enlargement@?$List@UCard@CardDeck@@@@QAEEH@Z`
`?l_Free@?$List@UCard@CardDeck@@@@UAEEG@Z`
`?l_MakeList@?$List@UCard@CardDeck@@@@AAEXG@Z`
`?l_PopA@?$List@UCard@CardDeck@@@@UAEEPAUCard@CardDeck@@@Z`
`?l_PopZ@?$List@UCard@CardDeck@@@@UAEEPAUCard@CardDeck@@@Z`
`?l_PushA@?$List@UCard@CardDeck@@@@UAEEPAUCard@CardDeck@@@Z`
`?l_PushZ@?$List@UCard@CardDeck@@@@UAEEPAUCard@CardDeck@@@Z`
`?l_SetListArray@?$List@UCard@CardDeck@@@@QAEEPAV?$ListArray@UCard@CardDeck@@@@@Z`
`?lid_Call@?$ListEraser@UCard@CardDeck@@@@UAEEPAUCard@CardDeck@@G@Z`
`?lid_Call@?$ListIteratorDefault@UCard@CardDeck@@@@UAEEPAUCard@CardDeck@@G@Z`
`?ls_CreateDirectory@cLogSystem@@AAEXPBD@Z`
`?ls_LogReservation@cLogSystem@@QAEXPAD@Z`
`?ls_LogSystemInit@cLogSystem@@QAE_NPBDW4LOG_CYCLE_TYPE@@0@Z`
`?ls_LogSystemProcess@cLogSystem@@CGKPAX@Z`
`?ls_ValidTimeCheck@cLogSystem@@AAE_NU_SYSTEMTIME@@0W4LOG_CYCLE_TYPE@@@Z`
`?lsq_Front@?$cLS_Queue@V?$basic_string@DU?$char_traits@D@std@@V?$allocator@D@2@@std@@@@QAE?AV?$basic_string@DU?$char_traits@D@std@@V?$allocator@D@2@@std@@XZ`
`?lsq_Push@?$cLS_Queue@V?$basic_string@DU?$char_traits@D@std@@V?$allocator@D@2@@std@@@@QAEXV?$basic_string@DU?$char_traits@D@std@@V?$allocator@D@2@@std@@@Z`
`?lsq_QueueAllocate@?$cLS_Queue@V?$basic_string@DU?$char_traits@D@std@@V?$allocator@D@2@@std@@@@AAEXPAPAUCLS_QNODE@1@@Z`
`?m_NULLstr@CToken@@2DA`
`?m_pGetParameter@UnDecorator@@0P6APADJ@ZA`
`?makeUpper@String@@QAEXXZ`
`?mapdatabox@@3VMapDataBox@@A`
`?maxStringLength@UnDecorator@@0HA`
`?mdb_Load@MapDataBox@@QAEXPAD@Z`
`?message@_Generic_error_category@std@@UBE?AV?$basic_string@DU?$char_traits@D@std@@V?$allocator@D@2@@2@H@Z`
`?message@_Iostream_error_category@std@@UBE?AV?$basic_string@DU?$char_traits@D@std@@V?$allocator@D@2@@2@H@Z`
`?ms_bEncrypt@CCsl@@1HA`
`?ms_pEncryptFN_Ext@CCsl@@1PADA`
`?my_tcstok@CToken@@QAEPADPADPBD@Z`
`?name@UnDecorator@@0PBDB`
`?name@_Generic_error_category@std@@UBEPBDXZ`
`?name@_Iostream_error_category@std@@UBEPBDXZ`
`?name@_System_error_category@std@@UBEPBDXZ`
`?namestring@@3VNameString@@A`
`?ocs_make@OptionCardStack@ItemOptionsData@@QAEEPAUItemOptionStorage@@@Z`
`?ocs_selectnumber@OptionCardStack@ItemOptionsData@@QAEHPAUItemOptions@@@Z`
`?onServiceStart@WinService@@AAE_NXZ`
`?onServiceStop@WinService@@AAEXXZ`
`?openDB@DBRecord@@UAE_NPAD@Z`
`?openDB@Database@@UAE_NPAD@Z`
`?outputString@UnDecorator@@0PADA`
`?pArgList@UnDecorator@@0PAVReplicator@@A`
`?pTemplateArgList@UnDecorator@@0PAVReplicator@@A`
`?pZNameList@UnDecorator@@0PAVReplicator@@A`
`?p_AccountLog_Add@CSQLPAccountLog@@QAE_JPAVDBRecord@@PAUSQL_ACCOUNTLOG_DATA@1@@Z`
`?p_AccountLog_TextLogWrite@CSQLPAccountLog@@QAE_NPAD@Z`
`?p_Event_L20_Get@CSQLPEventL20@@QAEHPAVDBRecord@@PAUSQL_EVENT_L20@1@@Z`
`?p_Event_L20_Set@CSQLPEventL20@@QAEHPAVDBRecord@@PAUSQL_EVENT_L20@1@@Z`
`?p_IPBlock_IsBlock@CSQLPAccountLog@@QAE_NPAVDBRecord@@PADHPAE@Z`
`?p_IPBlock_IsBlock_GER@CSQLPAccountLog@@QAE_NPAVDBRecord@@PADHPAE@Z`
`?p_IPBlock_IsBlock_JP@CSQLPAccountLog@@QAE_NPAVDBRecord@@PADHPAE@Z`
`?p_IPBlock_IsBlock_TW@CSQLPAccountLog@@QAE_NPAVDBRecord@@PADHPAE@Z`
`?p_IPBlock_IsBlock_US@CSQLPAccountLog@@QAE_NPAVDBRecord@@PADHPAE@Z`
`?p_Report_Add@CSQLPReport@@QAEHPAVDBRecord@@AAU_REPORT_DATA_ADD@@@Z`
`?p_Report_Del@CSQLPReport@@QAEHPAVDBRecord@@AAU_REPORT_DATA_CANCEL@@@Z`
`?p_Report_Get@CSQLPReport@@QAEHPAVDBRecord@@AAU_REPORT_DATA_GET@@@Z`
`?p_SameTimeCharClass_Add@CSQLPStatistics@@QAEHPAVDBRecord@@PAUSQL_SAME_TIME_CHAR_CLASS_DATA@1@@Z`
`?p_SameTimeChar_Add@CSQLPStatistics@@QAEHPAVDBRecord@@PAUSQL_SAMETIMECHAR_DATA@1@@Z`
`?p_Set_Event_Long_Time_Play@CSQLPAccountLog@@QAE_NPAVDBRecord@@PAUSQL_EVENT_LONG_TIME_PLAY@1@@Z`
`?pft_Store@?$PROTOCOLFUNCTIONTEMPLETE@P8CPFs@@AEHPAUNETPACKET@@H@Z@@QAEXHHP8CPFs@@AEHPAUNETPACKET@@H@Z@Z`
`?query@DBRecord@@QAA_NPBDZZ`
`?queryServiceStatus@WinService@@QAEHPAKPBD1@Z`
`?removeService@WinService@@QAE_NVString@@@Z`
`?rewarddata@@3VRewardData@@A`
`?rndbox@@3VRandomBox@@A`
`?rs_Init@RandomSlot@@QAEXH@Z`
`?s_nAlloc@CIOBuffer@@2JA`
`?s_nCount@CIOBuffer@@2JA`
`?selfInstance@?$Singleton@VWinService@@@@0PAVWinService@@A`
`?serviceHandler@WinService@@CGXK@Z`
`?serviceLoop@WinService@@CGXKPAPAD@Z`
`?shineassert@@3VAssertClass@@A`
`?sm_pSocketRateData@EnchantSocketRateData@@0PAV1@A`
`?ss_Getpacket@CSocket_Session@@UAEHPAE@Z`
`?ss_protocolcheck@CSocket_Session@@UAEXPATNETCOMMAND@@@Z`
`?ss_socketclose@CSocket_Session@@UAEXXZ`
`?ss_socketopen@CSocket_Session@@UAEXXZ`
`?startDispatcher@WinService@@QAE_NVString@@P6A_NXZP6AXXZ@Z`
`?terminate@@YAXXZ`
`?unexpected@@YAXXZ`
`?uploadService@WinService@@QAE_NVString@@00@Z`
`?usp_AccountLog_GetDateDiffLastlogout@CSQLPAccountLog@@QAE_NPAVDBRecord@@PAUSQL_GET_DATE_LAST_LOGOUT@1@@Z`
`?usp_Log_setLogout@CSQLPAccountLog@@QAE_NPAVDBRecord@@PAUSQL_SETLOGOUT_DATA@1@@Z`
`?weapontitle@@3PAVCWeaponTitle@@A`
`?well512_GetRandom@cWell512Random@@QAEII@Z`
`?well512_GetRandom@cWell512Random@@QAENXZ`
`?well512_InitState@cWell512Random@@QAEXPAI@Z`
`?what@exception@std@@UBEPBDXZ`
