`??_7?$PROTOCOLFUNCTIONTEMPLETE@P8CParserAccountDB@@AEHPAVCLoginAccountDBSession@@PAUNETPACKET@@H@Z@@6B@`
`??_7?$PROTOCOLFUNCTIONTEMPLETE@P8CParserAccountLogDB@@AEHPAVCLoginAccountLogDBSession@@PAUNETPACKET@@H@Z@@6B@`
`??_7?$PROTOCOLFUNCTIONTEMPLETE@P8CParserClient@@AEHPAVCLoginClientSession@@PAUNETPACKET@@H@Z@@6B@`
`??_7?$PROTOCOLFUNCTIONTEMPLETE@P8CParserOPTool@@AEHPAVCLoginOPToolSession@@PAUNETPACKET@@H@Z@@6B@`
`??_7?$PROTOCOLFUNCTIONTEMPLETE@P8CParserWorldManager@@AEHPAVCLoginWorldManagerSession@@PAUNETPACKET@@H@Z@@6B@`
`??_7CIOBuffer@@6B@`
`??_7CIOCP_Process_Interfece@@6B@`
`??_7CIOCP_Process_LSession@@6B@`
`??_7CIOCP_Process_Socket@@6B@`
`??_7CLoginBaseSessionManager@@6B@`
`??_7CLoginClientSessionManager@@6B@`
`??_7CLoginOPToolSessionManager@@6B@`
`??_7CLoginWorldManagerSessionManager@@6B@`
`??_7CMD5Checksum@@6B@`
`??_7CPacket@@6B@`
`??_7CSocket_Acceptor_Process_Interface@@6B@`
`??_7String@@6B@`
`??_7WinService@@6B@`
`??_7_Generic_error_category@std@@6B@`
`??_7_Iostream_error_category@std@@6B@`
`??_7_System_error_category@std@@6B@`
`??_7bad_alloc@std@@6B@`
`??_7bad_exception@std@@6B@`
`??_7error_category@std@@6B@`
`??_7exception@std@@6B@`
`??_7length_error@std@@6B@`
`??_7logic_error@std@@6B@`
`??_7out_of_range@std@@6B@`
`??_7type_info@@6B@`
`??_C@_00CNPNBAHC@?$AA@`
`??_C@_01BJJEKLCA@?$CC?$AA@`
`??_C@_01CLKCMJKC@?5?$AA@`
`??_C@_01DCLJPIOD@?$CB?$AA@`
`??_C@_01DNKMNLPK@?$HM?$AA@`
`??_C@_01EEMJAFIK@?6?$AA@`
`??_C@_01FGNFDNOH@?$CF?$AA@`
`??_C@_01HNPIGOCE@?$CG?$AA@`
`??_C@_01IHBHIGKO@?0?$AA@`
`??_C@_01JKBOJNNK@?$FO?$AA@`
`??_C@_01JOAMLHOP@?9?$AA@`
`??_C@_01KDCPPGHE@r?$AA@`
`??_C@_01KMDKNFGN@?1?$AA@`
`??_C@_01MCMALHOG@a?$AA@`
`??_C@_01MIFGBAGJ@?$CL?$AA@`
`??_C@_01MNNFJEPP@?$DM?$AA@`
`??_C@_01NBENCBCI@?$CK?$AA@`
`??_C@_01NEMOKFLO@?$DN?$AA@`
`??_C@_01NOFIACDB@w?$AA@`
`??_C@_01PJKLJHI@?$HO?$AA@`
`??_C@_01PPODPGHN@?$DO?$AA@`
`??_C@_02BAABKJLB@?9?9?$AA@`
`??_C@_02CHHINNLG@?$CK?1?$AA@`
`??_C@_02CJNFDJBF@PM?$AA@`
`??_C@_02CLFPBFFP@TZ?$AA@`
`??_C@_02DEDBPAFC@AM?$AA@`
`??_C@_02DHLNPPGH@?$HM?$DN?$AA@`
`??_C@_02DKCKIIND@?$CFs?$AA@`
`??_C@_02DPNLHKJD@a?$CL?$AA@`
`??_C@_02ECNGHCIF@?$CL?$CL?$AA@`
`??_C@_02EEKDKGMJ@?$DO?$DN?$AA@`
`??_C@_02EGOFBIJA@?$DN?$DN?$AA@`
`??_C@_02EHCHHCKH@?$DM?$DN?$AA@`
`??_C@_02FDNJECIE@?$CB?$DN?$AA@`
`??_C@_02FENAOKFI@?$CF?$DN?$AA@`
`??_C@_02FGJGFEAB@?$CG?$DN?$AA@`
`??_C@_02FJEHGPIO@?1?$DN?$AA@`
`??_C@_02FKMDLLOA@?9?$DN?$AA@`
`??_C@_02FMMEOLBI@?1?$CK?$AA@`
`??_C@_02FODMEDOG@?$DM?$DM?$AA@`
`??_C@_02FOEOMHFC@?$CL?$DN?$AA@`
`??_C@_02FPIMKNGF@?$CK?$DN?$AA@`
`??_C@_02GPECMEKF@?$FL?$FN?$AA@`
`??_C@_02GPIOPFAK@?$DO?$DO?$AA@`
`??_C@_02HBOOOICD@?9?$DO?$AA@`
`??_C@_02HCKGKOFO@?$CI?$CJ?$AA@`
`??_C@_02HJDGHLHA@?5?$DO?$AA@`
`??_C@_02KEGNLNML@?0?5?$AA@`
`??_C@_02LIELBOLL@?$DM?5?$AA@`
`??_C@_02MHEGNOJ@?$FO?$DN?$AA@`
`??_C@_02NJNOFBBI@?$CFx?$AA@`
`??_C@_02NONPIBCD@?$HM?$HM?$AA@`
`??_C@_02PLJDPFIO@00?$AA@`
`??_C@_02PPKAJPJL@?$CG?$CG?$AA@`
`??_C@_03BMAOKBAD@Oct?$AA@`
`??_C@_03CDNPDDLA@?$DM?$DM?$DN?$AA@`
`??_C@_03CNMDKL@May?$AA@`
`??_C@_03DMHPHFFE@WEB?$AA@`
`??_C@_03FEFJNEK@Sat?$AA@`
`??_C@_03GGCAPAJC@Sep?$AA@`
`??_C@_03HJBDCHOM@Feb?$AA@`
`??_C@_03IDFGHECI@Jun?$AA@`
`??_C@_03IDIOELNC@Fri?$AA@`
`??_C@_03IFJFEIGA@Aug?$AA@`
`??_C@_03IKFCCPFF@?$DO?$DO?$DN?$AA@`
`??_C@_03IOFIKPDN@Thu?$AA@`
`??_C@_03JIHJHPIE@Jan?$AA@`
`??_C@_03JPJOFNIA@Nov?$AA@`
`??_C@_03KLGMFNMG@?$GAEH?$AA@`
`??_C@_03KOEHGMDN@Sun?$AA@`
`??_C@_03LBGABGKK@Jul?$AA@`
`??_C@_03LEOLGMJP@Apr?$AA@`
`??_C@_03MHOMLAJA@Wed?$AA@`
`??_C@_03MKABNOCG@Dec?$AA@`
`??_C@_03MLMOILGK@Msg?$AA@`
`??_C@_03MNHNFDLC@?9?$DO?$CK?$AA@`
`??_C@_03NAGEINEP@Tue?$AA@`
`??_C@_03ODNJBKGA@Mar?$AA@`
`??_C@_03PDAGKDH@Mon?$AA@`
`??_C@_03PHPAKPLH@0?$CFx?$AA@`
`??_C@_04BDPBJBMI@?5?7?0?$CC?$AA@`
`??_C@_04CNLMGBGM@June?$AA@`
`??_C@_04HDOCAJNK@?$CFs?$CFs?$AA@`
`??_C@_04HHCDBDLF@?5?7?$AN?6?$AA@`
`??_C@_04HPADIMGJ@ZONE?$AA@`
`??_C@_04HPMIDMKH@True?$AA@`
`??_C@_04INEGHELD@?$DMID?$DO?$AA@`
`??_C@_04KMMDIKEB@?5?$CFs?5?$AA@`
`??_C@_04MIEPOIFP@July?$AA@`
`??_C@_04NIHEBCM@?5new?$AA@`
`??_C@_04OIIEOHIK@?$FLID?$FN?$AA@`
`??_C@_04PNGHNPPC@?$CDEND?$AA@`
`??_C@_05CJDDEJDD@PATCH?$AA@`
`??_C@_05DGINIOCI@?4?2Log?$AA@`
`??_C@_05DMJDNLEJ@April?$AA@`
`??_C@_05DNEBIAHO@1?$CDINF?$AA@`
`??_C@_05DNIIFBMG@?$CFs?5?$CFs?$AA@`
`??_C@_05HAKNIAEG@?0?5?7?$AN?6?$AA@`
`??_C@_05HPCKOFNC@March?$AA@`
`??_C@_05IBIHEBPO@?$FLHEX?$FN?$AA@`
`??_C@_05KHLCHHI@?$GARTTI?$AA@`
`??_C@_05KLBDPFGC@e?$CL000?$AA@`
`??_C@_05MEFBHAJG@?$CDREAD?$AA@`
`??_C@_05MJENMIDH@?4mdmp?$AA@`
`??_C@_05MKDOIIA@False?$AA@`
`??_C@_05NKKGEGHI@?$DMHEX?$DO?$AA@`
`??_C@_05PHHOCPM@1?$CDIND?$AA@`
`??_C@_05PLHGOPJD@LOGIN?$AA@`
`??_C@_06DCBACPNP@CLIENT?$AA@`
`??_C@_06FHBGPFGH@?5new?$FL?$FN?$AA@`
`??_C@_06FHFOAHML@system?$AA@`
`??_C@_06GHPCKEAG@__eabi?$AA@`
`??_C@_06IMKFLFPG@1?$CDQNAN?$AA@`
`??_C@_06JECMNKMI@Friday?$AA@`
`??_C@_06JLEDEDGH@Monday?$AA@`
`??_C@_06KEMJHOLD@UPLOAD?$AA@`
`??_C@_06LBBHFDDG@August?$AA@`
`??_C@_06MPDJINPP@?$CDWRITE?$AA@`
`??_C@_06NNBGLOCE@?$CDCLEAR?$AA@`
`??_C@_06OHLOMLHG@?$CFs?5?$CFs?5?$AA@`
`??_C@_06OJHGLDPL@?$CInull?$CJ?$AA@`
`??_C@_06OOPIFAJ@Sunday?$AA@`
`??_C@_06PFLAMGHC@OPTOOL?$AA@`
`??_C@_06PGGFOGJG@1?$CDSNAN?$AA@`
`??_C@_06PGHHOBB@REMOVE?$AA@`
`??_C@_07BAAGCFCM@Tuesday?$AA@`
`??_C@_07BJALAJJG@USE?5OTP?$AA@`
`??_C@_07CGJPFGJA@January?$AA@`
`??_C@_07DCLBNMLN@generic?$AA@`
`??_C@_07FAHLBAOH@?$FLFLOAT?$FN?$AA@`
`??_C@_07FEEIOKP@?$GAvcall?8?$AA@`
`??_C@_07FPCDHGMM@?5delete?$AA@`
`??_C@_07JJNFCEND@October?$AA@`
`??_C@_07JOMMBBKO@__ptr64?$AA@`
`??_C@_07KOLFKCDI@__cdecl?$AA@`
`??_C@_07MEFACOEC@?$CDDEFINE?$AA@`
`??_C@_07MEIFIBCB@?$DMFLOAT?$DO?$AA@`
`??_C@_07NFANNNEC@UNKNOWN?$AA@`
`??_C@_07PEJMOBNF@FlsFree?$AA@`
`??_C@_08BPBNCDIB@MM?1dd?1yy?$AA@`
`??_C@_08DPPHFGIL@LAUNCHER?$AA@`
`??_C@_08EDHMEBNP@December?$AA@`
`??_C@_08EHJDFFNH@__based?$CI?$AA@`
`??_C@_08GHMPAG@__pascal?$AA@`
`??_C@_08GNJGEPFN@February?$AA@`
`??_C@_08HACCIKIA@Thursday?$AA@`
`??_C@_08HCHEGEOA@November?$AA@`
`??_C@_08IGLONNOE@?$DMSTRING?$DO?$AA@`
`??_C@_08INBOOONO@Saturday?$AA@`
`??_C@_08INEPGKHH@No?5error?$AA@`
`??_C@_08JCCMCCIL@HH?3mm?3ss?$AA@`
`??_C@_08JCONCOJD@?$CDINCLUDE?$AA@`
`??_C@_08JENACEDF@ShineLog?$AA@`
`??_C@_08KNHFBNJ@FlsAlloc?$AA@`
`??_C@_08LHJFAFGD@operator?$AA@`
`??_C@_08LLFFHHDJ@?$GAtypeof?8?$AA@`
`??_C@_08LLGCOLLL@iostream?$AA@`
`??_C@_08OBABFOLI@?$GAstring?8?$AA@`
`??_C@_08PAGMAJON@?$FLSTRING?$FN?$AA@`
`??_C@_09BBFLKNEP@tt?5hhmmss?$AA@`
`??_C@_09BHHEALKD@September?$AA@`
`??_C@_09BLBHBJP@?$GAvbtable?8?$AA@`
`??_C@_09CCJJMCAM@?$CDSEPRATOR?$AA@`
`??_C@_09DLIGFAKA@Wednesday?$AA@`
`??_C@_09HIJEGCPM@__clrcall?$AA@`
`??_C@_09IFJBGAPI@__stdcall?$AA@`
`??_C@_09IFPLHPGF@?$GAvftable?8?$AA@`
`??_C@_09IOHMHKPC@?$CF04X?3?$CF08X?$AA@`
`??_C@_09KKJFIDEP@NTDLL?4DLL?$AA@`
`??_C@_09KOIOCIHC@?$DMUNKNOWN?$DO?$AA@`
`??_C@_09LBNFPBCA@?5delete?$FL?$FN?$AA@`
`??_C@_09LNJMCMFP@?$FLINTEGER?$FN?$AA@`
`??_C@_09MAHHALDC@?$DMINTEGER?$DO?$AA@`
`??_C@_0BA@BIBLIOEK@Resource?5device?$AA@`
`??_C@_0BA@BLJOMCEM@SERVER_ID_LOGIN?$AA@`
`??_C@_0BA@CJBACOOL@Not?5a?5directory?$AA@`
`??_C@_0BA@DEMPFFAH@?$CFs?5?9?5READ?5ERROR?$AA@`
`??_C@_0BA@DFBLHOAH@?$CFs?5?9?5UNKNOWNED?4?$AA@`
`??_C@_0BA@FKIAIBGA@No?5such?5process?$AA@`
`??_C@_0BA@HELNPOGG@ZoneLinktoError?$AA@`
`??_C@_0BA@HNOPNCHB@GetActiveWindow?$AA@`
`??_C@_0BA@JFNIOLAK@string?5too?5long?$AA@`
`??_C@_0BA@KBCDOMBN@?$GAudt?5returning?8?$AA@`
`??_C@_0BA@KKLDJDLB@?$GAlocal?5vftable?8?$AA@`
`??_C@_0BA@LLCOGFFN@?$DMSERVICE?5START?$DO?$AA@`
`??_C@_0BA@MJNLGEOM@SERVER_ID_PATCH?$AA@`
`??_C@_0BB@BACIFMCD@?$DMEXIT?5MAIN?5LOOP?$DO?$AA@`
`??_C@_0BB@CEJMAILH@SERVER_ID_CLIENT?$AA@`
`??_C@_0BB@FCBJFCAJ@Result?5too?5large?$AA@`
`??_C@_0BB@FPHPIBCC@?$CFs?5?9?5WRITE?5ERROR?$AA@`
`??_C@_0BB@HIHPNGNH@Assert?$CFs?$CF02d?4txt?$AA@`
`??_C@_0BB@HMGGCEBG@Invalid?5argument?$AA@`
`??_C@_0BB@IMDKMPFB@Not?5enough?5space?$AA@`
`??_C@_0BB@ODDMOBBK@SERVER_ID_OPTOOL?$AA@`
`??_C@_0BC@BEDIHIDK@Filename?5too?5long?$AA@`
`??_C@_0BC@DAFEJGAK@?5Type?5Descriptor?8?$AA@`
`??_C@_0BC@EOODALEL@Unknown?5exception?$AA@`
`??_C@_0BC@FGNJNDCE@System?5Time?$CIUTC?$CJ?5?$AA@`
`??_C@_0BC@HFNFNKAI@Permission?5denied?$AA@`
`??_C@_0BC@HKPNECK@Exec?5format?5error?$AA@`
`??_C@_0BC@JGHCLIAP@SERVER_ID_UNKNOWN?$AA@`
`??_C@_0BC@LCLCCDGC@ExitLog?$CFs?$CF02d?4txt?$AA@`
`??_C@_0BC@LJEFODJG@Local?5?5Time?5?5?5?5?5?5?$AA@`
`??_C@_0BC@MFFGCDFL@Arg?5list?5too?5long?$AA@`
`??_C@_0BC@MNIKNFKD@MiniDumpWriteDump?$AA@`
`??_C@_0BC@NJGBAPCK@Socket_IOCP_Write?$AA@`
`??_C@_0BD@CLHBCGPB@No?5locks?5available?$AA@`
`??_C@_0BD@DHNJBEMD@SERVER_ID_LAUNCHER?$AA@`
`??_C@_0BD@GHIFEFHM@?$CFs?5?9?5WRITE?5DATA?5OK?$AA@`
`??_C@_0BD@HHGDFDBJ@GetLastActivePopup?$AA@`
`??_C@_0BD@JDLKDPAB@?$GAvbase?5destructor?8?$AA@`
`??_C@_0BD@KAMDNKIC@?$DMSTOPPED?5ACCEPTOR?$DO?$AA@`
`??_C@_0BD@KKNFOBBD@Input?1output?5error?$AA@`
`??_C@_0BD@LADIBJGA@?5?$CFs?$CI?$CJ?$CL?$CF04d?5byte?$CIs?$CJ?$AA@`
`??_C@_0BD@LGICGFMM@?5Base?5Class?5Array?8?$AA@`
`??_C@_0BD@LOHELEP@No?5child?5processes?$AA@`
`??_C@_0BD@MIJNHJNI@?5at?3?5?$DM?5?$CF04X?3?$CF08X?5?$DO?$AA@`
`??_C@_0BD@MIOFGNNB@?$DMSTOP?5MAIN?5THREAD?$DO?$AA@`
`??_C@_0BE@BPNOCGBE@?$CF03d?4?$CF03d?4?$CF03d?4?$CF03d?$AA@`
`??_C@_0BE@CKGJFCPC@dddd?0?5MMMM?5dd?0?5yyyy?$AA@`
`??_C@_0BE@ELHBJCIM@LoginServerInfo?4txt?$AA@`
`??_C@_0BE@FFMOMMDD@?$CF02d?3?$CF02d?3?$CF02d?3?$CF03d?$AA@`
`??_C@_0BE@GFANICOI@IP?$DN?$CFs?3?$CFd?0?5SOCKET?$DN?$CFd?$AA@`
`??_C@_0BE@ICMCHPHH@Directory?5not?5empty?$AA@`
`??_C@_0BE@INBJMKGG@Too?5many?5open?5files?$AA@`
`??_C@_0BE@NFGDDCEF@Bad?5file?5descriptor?$AA@`
`??_C@_0BE@OBGBKNHM@?$DMSERVICE?5REMOVE?5OK?$DO?$AA@`
`??_C@_0BF@BIDANKGB@?$CFs?5?9?5WRITE?5FORMAT?5OK?$AA@`
`??_C@_0BF@BLPCMAHP@EXCEPTION_GUARD_PAGE?$AA@`
`??_C@_0BF@FLLDOCJP@EXCEPTION_BREAKPOINT?$AA@`
`??_C@_0BF@JCPCBPND@SERVER_ID_DB_GAMELOG?$AA@`
`??_C@_0BF@KDPPACIK@?$GAlocal?5static?5guard?8?$AA@`
`??_C@_0BF@MHDJPGI@?$DM?5END?5OF?5MAIN?5?$DN?5?$CFd?5?$DO?$AA@`
`??_C@_0BF@POIEENBM@SERVER_ID_DB_ACCOUNT?$AA@`
`??_C@_0BG@BDBDLJCL@?$CFs?5?9?5WRITE?5DATA?5ERROR?$AA@`
`??_C@_0BG@DDBFNKBH@Read?9only?5file?5system?$AA@`
`??_C@_0BG@HDMCEMOH@FILE?5PROCESSING?5?9?5?$CFs?5?$AA@`
`??_C@_0BG@HPCFEJHG@EXCEPTION_SINGLE_STEP?$AA@`
`??_C@_0BG@KLEAJEFJ@Illegal?5byte?5sequence?$AA@`
`??_C@_0BG@KOLNKHBL@?$DMSERVER?5SELF?5STOPPED?$DO?$AA@`
`??_C@_0BG@PADBLCHM@iostream?5stream?5error?$AA@`
`??_C@_0BH@DBPHHKBK@SERVER_ID_WORLDMANAGER?$AA@`
`??_C@_0BH@HNBKDLPO@EXCEPTION_INT_OVERFLOW?$AA@`
`??_C@_0BH@LCJNNOKG@SERVER_ID_DB_CHARACTER?$AA@`
`??_C@_0BH@LGFBHAFE@EXCEPTION_FLT_OVERFLOW?$AA@`
`??_C@_0BI@BJFCGOHL@Operation?5not?5permitted?$AA@`
`??_C@_0BI@BKMKNJDF@?$CKFAILED?5SCRIPTOR?5READ?$CK?5?$AA@`
`??_C@_0BI@BNDIILLI@EXCEPTION_IN_PAGE_ERROR?$AA@`
`??_C@_0BI@CFPLBAOH@invalid?5string?5position?$AA@`
`??_C@_0BI@CHKFJJC@EXCEPTION_FLT_UNDERFLOW?$AA@`
`??_C@_0BI@DFKBFLJE@GetProcessWindowStation?$AA@`
`??_C@_0BI@DNKMDNMN@?$DMSERVICE?5UPLOAD?5FAILED?$DO?$AA@`
`??_C@_0BI@EKDPFIKB@?$CFs?5?9?5WRITE?5FORMAT?5ERROR?$AA@`
`??_C@_0BI@FEALHKLD@No?5space?5left?5on?5device?$AA@`
`??_C@_0BI@GOIELPIK@Microsoft?5C?$CL?$CL?5Exception?$AA@`
`??_C@_0BI@HAEDCOEO@?$CKFAILED?5STOP?5ACCEPTOR?$CK?5?$AA@`
`??_C@_0BI@KPACNICB@SERVER_ID_DB_ACCOUNTLOG?$AA@`
`??_C@_0BI@PBCFADCF@?$DMSERVICE?5REMOVE?5FAILED?$DO?$AA@`
`??_C@_0BJ@BKJLBIPE@EXCEPTION_INVALID_HANDLE?$AA@`
`??_C@_0BJ@EGEMELC@?$DMSERVICE?5UPLOAD?5ONLY?5OK?$DO?$AA@`
`??_C@_0BJ@EOJECOI@?$CFs?2?$CFs_?$CF04d?9?$CF02d?9?$CF02d?4txt?$AA@`
`??_C@_0BJ@FJAJIDKM@DATA?5DEFINNING?0?5EOF?5Come?$AA@`
`??_C@_0BJ@FNEOPPMM@EXCEPTION_STACK_OVERFLOW?$AA@`
`??_C@_0BJ@HICIJGGP@?$CKFAILED?5START?5ACCEPTOR?$CK?5?$AA@`
`??_C@_0BJ@IELDKABB@ClientVersionKeyInfo?4txt?$AA@`
`??_C@_0BJ@IHEHINLI@Function?5not?5implemented?$AA@`
`??_C@_0BJ@LFDMKDCM@?4?2DebugMessage?2?$CFs_?$CFs?4txt?$AA@`
`??_C@_0BJ@OPBJBGGL@?$CKFAILED?5GetMyServerInfo?$CK?$AA@`
`??_C@_0BK@CFCOFLF@?5Complete?5Object?5Locator?8?$AA@`
`??_C@_0BK@COBCCPEI@EXCEPTION_FLT_STACK_CHECK?$AA@`
`??_C@_0BK@DEKFELLI@GetUserObjectInformationW?$AA@`
`??_C@_0BK@DKLPBKLF@Launching?5the?5server?4?4?4?4?4?$AA@`
`??_C@_0BK@DPKMCKJ@No?5such?5device?5or?5address?$AA@`
`??_C@_0BK@FJBOAFDK@Interrupted?5function?5call?$AA@`
`??_C@_0BK@FMDHKPNF@No?5such?5file?5or?5directory?$AA@`
`??_C@_0BK@IOJILNAH@?$DMSERVICE?5UNKNOWN?5COMMAND?$DO?$AA@`
`??_C@_0BK@JAEBMJJM@Resource?5deadlock?5avoided?$AA@`
`??_C@_0BL@CLIPGLGB@?$GAdynamic?5initializer?5for?5?8?$AA@`
`??_C@_0BL@CMOMFGDN@EXCEPTION_ACCESS_VIOLATION?$AA@`
`??_C@_0BL@CNOONJFP@?$GAplacement?5delete?5closure?8?$AA@`
`??_C@_0BL@COIOCEME@?$DMIOCP?5WORKTHREAD?5?$CD?$CFd?5FREE?$DO?$AA@`
`??_C@_0BL@HJPDFKEO@EXCEPTION_PRIV_INSTRUCTION?$AA@`
`??_C@_0BL@ICPEPJAJ@?$DMSUCCESSED?5SCRIPTOR?5READ?$DO?5?$AA@`
`??_C@_0BL@LJIOBBEF@?$DMSUCCESSED?5START?5ACCEPTOR?$DO?$AA@`
`??_C@_0BL@LLKPOHJI@?$GAcopy?5constructor?5closure?8?$AA@`
`??_C@_0BL@NILFHHPC@?$GAvirtual?5displacement?5map?8?$AA@`
`??_C@_0BM@GOLKECGL@FORMAT?5DEFINNING?0?5EOF?5Come?4?$AA@`
`??_C@_0BM@LDKODKLH@?5Base?5Class?5Descriptor?5at?5?$CI?$AA@`
`??_C@_0BM@MDKLLAAF@?5?$CFs?0?5line?5?$CF04d?$CL?$CF04d?5byte?$CIs?$CJ?$AA@`
`??_C@_0BM@PMGGMLDN@?$GAlocal?5static?5thread?5guard?8?$AA@`
`??_C@_0BN@CKNJLHMB@?$GAplacement?5delete?$FL?$FN?5closure?8?$AA@`
`??_C@_0BN@DEGPLNFK@?$GAvector?5deleting?5destructor?8?$AA@`
`??_C@_0BN@IMDCHIKM@?$GAscalar?5deleting?5destructor?8?$AA@`
`??_C@_0BN@KLCBBCKL@EXCEPTION_FLT_INEXACT_RESULT?$AA@`
`??_C@_0BN@LBLGDPIG@EXCEPTION_INT_DIVIDE_BY_ZERO?$AA@`
`??_C@_0BN@LFPFMEDL@?$GAvector?5destructor?5iterator?8?$AA@`
`??_C@_0BN@MECKDCOJ@?5Class?5Hierarchy?5Descriptor?8?$AA@`
`??_C@_0BN@PHPNMCML@EXCEPTION_FLT_DIVIDE_BY_ZERO?$AA@`
`??_C@_0BN@PLALHGAA@?$CKFAILED?5CREATE?5MAIN?5THREAD?$CK?5?$AA@`
`??_C@_0BO@DLLOIENN@EXCEPTION_ILLEGAL_INSTRUCTION?$AA@`
`??_C@_0BO@FFNNKAOG@?$CFs?2?$CFs_?$CF04d?9?$CF02d?9?$CF02d?5?$CF02d?4txt?$AA@`
`??_C@_0BO@GJKCLCLP@EXCEPTION_INVALID_DISPOSITION?$AA@`
`??_C@_0BO@IIFBODJE@Too?5many?5open?5files?5in?5system?$AA@`
`??_C@_0BO@MEBIBCFB@CSocket_IOCP?3?3Write?5dwSize?$DN?$CFd?$AA@`
`??_C@_0BO@OBMKPJIG@?$GAdefault?5constructor?5closure?8?$AA@`
`??_C@_0BO@PFGOCPJJ@?$GAvector?5constructor?5iterator?8?$AA@`
`??_C@_0BO@PKEOFMIH@?$DMIOCP?5WORKTHREAD?5?$CD?$CFd?5RUNNING?$DO?$AA@`
`??_C@_0BP@IALCDCDF@?$DMACCOUNT?5DB?5CONNECTION?5CLOSED?$DO?$AA@`
`??_C@_0BP@NDGHPOJN@?5?$CI0x?$CF08X?50x?$CF08X?50x?$CF08X?50x?$CF08X?$CJ?$AA@`
`??_C@_0BP@NMNHALMC@EXCEPTION_FLT_DENORMAL_OPERAND?$AA@`
`??_C@_0CA@GCEOPDGL@?$GAeh?5vector?5destructor?5iterator?8?$AA@`
`??_C@_0CA@HIDPIPJM@EXCEPTION?5?9?5DBGHELP?4DLL?5TOO?5OLD?$AA@`
`??_C@_0CA@IELIEDAO@?$CKFAILED?5Listen_Add?5?9?5IP?5?$DN?5?$CFs?3?$CFd?$AA@`
`??_C@_0CA@JJDIIMDB@EXCEPTION_FLT_INVALID_OPERATION?$AA@`
`??_C@_0CA@JNIHFDGO@EXCEPTION_ARRAY_BOUNDS_EXCEEDED?$AA@`
`??_C@_0CA@LEJEDDLG@EXCEPTION_DATATYPE_MISALIGNMENT?$AA@`
`??_C@_0CB@EPFKGNAK@Resource?5temporarily?5unavailable@`
`??_C@_0CB@FIJDAEPM@Bad?5parameter?5to?5GetFaultReason?6@`
`??_C@_0CB@JONCMFFK@?$GAeh?5vector?5constructor?5iterator?8@`
`??_C@_0CB@JOPKHHLB@FILE?5OPEN?5ERROR?$CICode?5?$DN?5?$CFd?$CJ?5?9?5?$CFs?5@`
`??_C@_0CB@NMOFGOOG@TOTAL?5Data?5?$CFd?5Defined?0?5?$CFd?5Errors@`
`??_C@_0CB@OMFIGPIO@E5DB037C4103B543CA6E6513075FED1D@`
`??_C@_0CB@PDBIFEP@?$GAdynamic?5atexit?5destructor?5for?5?8@`
`??_C@_0CC@IAOKCCFB@?$DMRECONNECT?5?5ACCOUNT?5DB?7?7TO?5?$CFs?3?$CFd@`
`??_C@_0CC@LGMPFOPA@?$DMCONNECTING?5ACCOUNT?5DB?7?7TO?5?$CFs?3?$CFd@`
`??_C@_0CC@NHLFCOON@EXCEPTION?5?9?5DBGHELP?4DLL?5NOT?5FOUN@`
`??_C@_0CC@PMPHPEGJ@?4?2DebugMessage?2ExecUpdateInfo?4tx@`
`??_C@_0CD@CGAJBKEJ@?$GAvector?5copy?5constructor?5iterato@`
`??_C@_0CD@ELMPFIAB@Include?5Data?5?$CFd?5Defined?0?5?$CFd?5Erro@`
`??_C@_0CD@FANEJBAE@TOTAL?5Format?5?$CFd?5Defined?0?5?$CFd?5Erro@`
`??_C@_0CD@JGPJMHJA@EXCEPTION_NONCONTINUABLE_EXCEPTI@`
`??_C@_0CD@KAMDMODL@ERROR?5?9?5CLIENT_HANDLE_ISVALID?5?$DN?5@`
`??_C@_0CD@MDMJIBBN@?$DMACCOUNT_LOG?5DB?5CONNECTION?5CLOSE@`
`??_C@_0CE@CJDLABFO@?$DMSTART?5MAIN?5THREAD?0?5LINKING?5SERV@`
`??_C@_0CE@IIHCMGGL@?$GAlocal?5vftable?5constructor?5closu@`
`??_C@_0CE@IKBNEHA@?$GAvector?5vbase?5constructor?5iterat@`
`??_C@_0CE@LDOCAIMN@EXCEPTION?5?9?5Saved?5dump?5file?5to?5?8@`
`??_C@_0CE@LIKLOAEN@INCLUDE?5OPEN?5ERROR?$CICode?5?$DN?5?$CFd?$CJ?5?9?5@`
`??_C@_0CE@NKAPCALI@CSocket_IOCP?3?3Write?5?$CF?$CDx?$CI?$CF?$CDx?$CJ?5err@`
`??_C@_0CE@ONOKNLPF@Inappropriate?5I?1O?5control?5operat@`
`??_C@_0CF@DGLGIKKH@?$CK?5ACCEPT?5NO?5SESSION?5BUFFER?5?9?5ERR@`
`??_C@_0CF@FIEHKIAC@IOBufferContainer?3?3IOBufferConta@`
`??_C@_0CF@IMGKMJNO@?$GAmanaged?5vector?5destructor?5itera@`
`??_C@_0CF@IOFBPGJM@Include?5Format?5?$CFd?5Defined?0?5?$CFd?5Er@`
`??_C@_0CF@KIOPGAEB@?$DMCONNECTING?5ACCOUNT?5LOG?5DB?7TO?5?$CFs@`
`??_C@_0CF@LINLLFJN@?$DMRECONNECT?5?5ACCOUNT?5LOG?5DB?7TO?5?$CFs@`
`??_C@_0CG@CFDHKGGD@?$GAmanaged?5vector?5constructor?5iter@`
`??_C@_0CG@HLDDJMAG@?$GAeh?5vector?5copy?5constructor?5iter@`
`??_C@_0CG@NPJOMGCC@?$CFs?5?3?5AssertClass?3?3ac_AssertFail?5@`
`??_C@_0CH@CPFAMLFN@PROTOCOLFUNCTIONTEMPLETE?$DMT?$DO?3?3pft@`
`??_C@_0CH@FMEGEDLJ@?$CKFAILED?5LISTEN?5ADD?0?5IP?$DN?$CFs?3?$CFd?0?5Fr@`
`??_C@_0CH@OOJPLCPH@?$GAeh?5vector?5vbase?5constructor?5ite@`
`??_C@_0CJ@GJELGAMM@?$GAvector?5vbase?5copy?5constructor?5i@`
`??_C@_0CJ@HLEMDJFH@?$DMI?5AM?5THE?5?$CFs?0?5?$CFs?0?5WorldNo?$DN?$CFd?0?5Zo@`
`??_C@_0CJ@KGAEOHDP@CSocket_IOCP?3?3Write?0?5INVALID?5m_S@`
`??_C@_0CK@DJHPCKKF@ERROR?5?9?5ERR_USERLOGIN_OUTSPARK_N@`
`??_C@_0CK@ICILKLIN@?$CFs?5?3?5AssertClass?3?3ac_AssertFail?5@`
`??_C@_0CK@IEJJHKGC@?$DMSUCCESSED?5LISTEN?5ADD?0?5IP?$DN?$CFs?3?$CFd?0@`
`??_C@_0CL@FGIJHLCE@?$GAmanaged?5vector?5copy?5constructor@`
`??_C@_0CL@KNDDNKMO@?$CFs?5?9?5FORMAT?5DEFINING?0?5UNKNOWNED?5@`
`??_C@_0CM@FCBBDIGB@?$GAeh?5vector?5vbase?5copy?5constructo@`
`??_C@_0CM@FLPMKBPG@ERROR?5?9?5Socket_Register_To_IOCP?5@`
`??_C@_0CM@HAJLOIBP@?$CKFATAL?5ERROR?0?5CAN?8T?5FOUND?5?$CFs?8s?5O@`
`??_C@_0CM@LOLKDKKF@?$DMOPTOOL?5ALL?5SESSION?5ARE?5DISCONNE@`
`??_C@_0CM@NNGINDFI@ERROR?5?9?5Socket_Register_To_IOCP?5@`
`??_C@_0CM@OFKDMFGA@?$DMCLIENT?5ALL?5SESSION?5ARE?5DISCONNE@`
`??_C@_0CM@PDMBDDND@CSocket_IOCP?3?3WriteCallback?5?$CF?$CDx?$CI@`
`??_C@_0CN@CBFMKPJH@GetFirstStackTraceString?5?9?5inval@`
`??_C@_0CO@IMOGFLNH@Send?5IOBuffer?5Full?3?3dwSize?$DN?$CFd?0?5B@`
`??_C@_0DC@BIAFLBJL@?$DMWORLDMANAGER?5ALL?5SESSION?5ARE?5DI@`
`??_C@_0DD@EIAOBNFD@?$CKFATAL?5ERROR?0?5CAN?8T?5FOUND?5?$CFs?8s?5C@`
`??_C@_0DE@IIDIKFNK@ERROR?5?9?5HEARTBEAT?5OVERTIME?0?5NOW?5@`
`??_C@_0DG@HKOJKHPL@ACCOUNTLOG?5SERVER?5DISCONNECTED?0?5@`
`??_C@_0DG@LAMHKFGP@EXCEPTION?5?9?5Failed?5to?5Call?5Stack@`
`??_C@_0DH@LLNEPPDD@?$CKFATAL?5ERROR?0?5CAN?8T?5FOUND?5?$CFs?8s?5A@`
`??_C@_0DH@LMCALDP@EXCEPTION?5?9?5Failed?5to?5create?5dum@`
`??_C@_0DI@KDOKPBAD@EXCEPTION?5?9?5Failed?5to?5save?5dump?5@`
`??_C@_0DI@OEOOCEKA@?9?9?9?9?9?9?9?9?9?9?9?9?9?9?9?9?9?9?9?9?9?9?9?9?9?9?9?9?9?9?9?9@`
`??_C@_0DI@PMNOEOEH@ERROR?5?9?5LISTEN?5SOCKET?5ACTIVE?5?$CI?$CFs@`
`??_C@_0DJ@GNLMGNPB@?$CKFATAL?5ERROR?0?5CAN?8T?5FOUND?5?$CFs?8s?5W@`
`??_C@_0DM@KJAMKNNI@Connected?5to?5?5?5?$CI?$CF?925s?5world?$DN?$CF3d?5@`
`??_C@_0DM@MEMGGLEN@ERROR?5?9?5CSendPacket?3?3SetSize?$DN?$CFd?0@`
`??_C@_0DO@FOELIME@?$DMSUCCESSED?5RUNNING?5SERVER?9?9?9?9?9?9?9@`
`??_C@_0EA@BPIGKOCD@?9?9?9?9?9?9?9?9?9?9?9?9?9?9?9?9?9?9?9?9?9?9?9?9?9?9?9?9?9?9?9?9@`
`??_C@_0EA@FCLIIPNN@Visual?5C?$CL?$CL?5CRT?3?5Not?5enough?5memor@`
`??_C@_0EA@KDGPLCOJ@PROTOCOLFUNCTIONTEMPLETE?$DMT?$DO?3?3pft@`
`??_C@_0ED@BONLNFPK@?$CK?5NULL?5Session?5List?5used?5?9?5CSock@`
`??_C@_0EF@GBHCAFJF@ValidationFail?5?$CI?$CF?925s?5world?$DN?$CF3d?5@`
`??_C@_0EG@FDFBIIA@?$CKFATAL?5ERROR?$CK?5?9?5VERSION?5KEY?5DATA@`
`??_C@_0EG@HIOPCDBH@ValidationFail?5?$CI?$CF?925s?5world?$DN?$CF3d?5@`
`??_C@_0EG@JEABEDGL@ERROR?5?9?5CSocket_IOCP?3?3Close?5?3?5re@`
`??_C@_0EG@PNBOCJAF@Connected?5from?5?$CI?$CF?925s?5world?$DN?$CF3d?5@`
`??_C@_0EH@PJLDCIAL@FATAL?5?9?5ERROR?0?5CSendPacket?3?3ID?0?5@`
`??_C@_0EI@JPHEBEPC@?$CKFAILED?5Listen_Add?5?9?5LISTEN?5ARRA@`
`??_C@_0EJ@FBLBNCL@ERROR?5?9?5CSocket_IOCP?3?3Shutdown?5?3@`
`??_C@_0EK@HKMKPLPN@Connected?5from?5?$CI?$CF?925s?5world?$DN?$CF3d?5@`
`??_C@_0EL@OMPBMFED@?A?$KC?$LM?S?$LP?d?C?$LL?G?Q?5?$LA?p?$LP?$KB?$LM?$KN?5?$MA?$NP?$LI?x?$LF?H?5?E?$LA?$LA?$KK?$MA?L?5@`
`??_C@_0EM@HEEHCKCF@?9?9?9?9?9?9?9?9?9?9?9?9?9?9?9?9?9?9?9?9?9?9?9?9?9?9?9?9?9?9?9?9@`
`??_C@_0EN@DAJDLIDM@ERROR?5?9?5CSocket_IOCP?3?3Receive?0?5m@`
`??_C@_0EP@PEMBIHBB@WARNING?5?9?5CSocket_IOCP?3?3Send?0?5OV@`
`??_C@_0EP@PKCGGPMA@WARNING?5?9?5CSocket_IOCP?3?3Send?0?5OV@`
`??_C@_0FB@KDDEDKDG@?$DN?$DN?$DN?$DN?$DN?$DN?$DN?$DN?$DN?$DN?$DN?$DN?$DN?$DN?$DN?$DN?$DN?$DN?$DN?$DN?$DN?$DN?$DN?$DN?$DN?$DN?$DN?$DN?$DN?$DN?$DN?$DN@`
`??_C@_0FB@LBDKECJG@ERROR?5?9?5WorldManager?5?$CD?$CFd?5?A?$KC?$LM?S?A?$KE?$LK@`
`??_C@_0FC@IHEBKMBP@?$CK?$CK?$CKFATAL?5ERROR?5?9?5ACCOUNT?5DB?5SERV@`
`??_C@_0FD@DNNCENHI@fc_dummyfunction?0?5WORLDMANAGER?0?5@`
`??_C@_0FD@GFBPNPJP@CSocket_IOCP?3?3Read?0?5ERROR?$DN?$CFd?0?5m_@`
`??_C@_0FD@GOHDHBBE@fc_dummyfunction?0?5ACCOUNT_DB?0?5de@`
`??_C@_0FD@IGEAAHM@NC_MISC_S2SCONNECTION_REQ?5?$DMserve@`
`??_C@_0FD@NGGGFKBG@fc_dummyfunction?0?5CLIENT?0?5dep?$DN?$CFd@`
`??_C@_0FD@OMAINGMO@fc_dummyfunction?0?5ACCOUNTLOG_DB?0@`
`??_C@_0FE@PIMFINNG@ERROR?5?9?5WorldManager?5?$CD?$CFd?5WILLLOG@`
`??_C@_0FF@KIEKCNII@fc_dummyfunction?0?5OPTool?0?5dep?$DN?$CFd@`
`??_C@_0FF@OBKFEEOA@?A?$KC?$LM?S?$LP?d?C?$LL?G?Q?5?$LM?$KN?$LJ?v?$MA?G?5?E?$LI?$MA?T?$LA?z?5?$LD?$KK?$MA?G?5?E?$LI@`
`??_C@_0FL@MEDJMAAF@Closed?5AC?5from?5?$CI?$CF?925s?5world?$DN?$CF3d?5@`
`??_C@_0FL@OELIEJAP@Closed?5AL?5from?5?$CI?$CF?925s?5world?$DN?$CF3d?5@`
`??_C@_0FN@EPLDGNCD@NC_MISC_S2SCONNECTION_REQ?5?$DMserve@`
`??_C@_0FN@JCFFBHOH@WARNING?5?9?5KEEP_TEENAGER?0?5LOGINAB@`
`??_C@_0FO@EPNEAHOL@m_pFirstBuf?5?$DN?5NULL?5?9?5WriteCallba@`
`??_C@_0GB@MDOFGNOK@CProtocol_Functions?3?3fc_NC_MISC_@`
`??_C@_0GE@MCLOEPJA@OPTOOL?5NC_MISC_S2SCONNECTION_REQ@`
`??_C@_0GF@CPJNBONO@Closed?5OP?5from?5?$CI?$CF?925s?5world?$DN?$CF3d?5@`
`??_C@_0GF@HPGNEKAJ@Closed?5WM?5from?5?$CI?$CF?925s?5world?$DN?$CF3d?5@`
`??_C@_0GF@JACILPNM@Closed?5CL?5from?5?$CI?$CF?925s?5world?$DN?$CF3d?5@`
`??_C@_0GF@MGPPGCD@MISSMATCH?5?9?5WriteCallback?0?5dwTra@`
`??_C@_0GI@DBMLLGOJ@ERROR?5?9?5?A?$KC?$LM?S?5OPTool?5?$LJ?L?$MA?N?A?u?5?$LL?s?E?B?$LP@`
`??_C@_0GI@LONBIOBO@ERROR?5?9?5?A?$KC?$LM?S?5CLIENT?5?$LJ?L?$MA?N?A?u?5?$LL?s?E?B?$LP@`
`??_C@_0GM@MBBBMKNE@ERROR?5?9?5?A?$KC?$LM?S?5ACCOUNT_DB?5?$LJ?L?$MA?N?A?u?5?$LL@`
`??_C@_0GO@MAFPHPLF@ERROR?5?9?5?A?$KC?$LM?S?5WORLDMANAGER?5?$LJ?L?$MA?N?A?u@`
`??_C@_0GP@GDGPFJKO@ERROR?5?9?5?A?$KC?$LM?S?5ACCOUNTLOG_DB?5?$LJ?L?$MA?N?A@`
`??_C@_0HP@JEGMJDPE@Invalid?5Client?5Session?5?9?5Not?5reg@`
`??_C@_0IB@PDFIIJNG@Invalid?5Client?5Session?5?9?5Invalid@`
`??_C@_0L@BPNAKOCO@?$CF06d?5?$CFs?$CFs?6?$AA@`
`??_C@_0L@DBLHBGFM@?$DMFILENAME?$DO?$AA@`
`??_C@_0L@DCIAPCEM@DB_GAMELOG?$AA@`
`??_C@_0L@DOLLOFEA@?$CDWRITEDATA?$AA@`
`??_C@_0L@EGNCBFBD@?$FLARRAYSRT?$FN?$AA@`
`??_C@_0L@FOPGKAID@DB_ACCOUNT?$AA@`
`??_C@_0L@GBGGBEMC@?$CDENDDEFINE?$AA@`
`??_C@_0L@GIIKNID@?$FLFILENAME?$FN?$AA@`
`??_C@_0L@HBONKOMM@?$DMARRAYSRT?$DO?$AA@`
`??_C@_0L@IGGMJDE@?$CDCLEARDATA?$AA@`
`??_C@_0L@JIKEIHLJ@?$DMARRAYEND?$DO?$AA@`
`??_C@_0L@JMKHOMEK@__fastcall?$AA@`
`??_C@_0L@KPJLDMGG@?$FLARRAYEND?$FN?$AA@`
`??_C@_0L@MEPHBNGI@?$FLSHORTKEY?$FN?$AA@`
`??_C@_0L@NOLIFMGJ@?$CDREMARKEND?$AA@`
`??_C@_0L@NPHFGOKO@__thiscall?$AA@`
`??_C@_0L@PDMIKGLH@?$DMSHORTKEY?$DO?$AA@`
`??_C@_0L@PILCLIHE@__restrict?$AA@`
`??_C@_0M@CEOOAFPO@?$CDREMARKLINE?$AA@`
`??_C@_0M@DLDCCGNP@MessageBoxW?$AA@`
`??_C@_0M@GDNOONDI@FlsGetValue?$AA@`
`??_C@_0M@GFIIJFMG@__unaligned?$AA@`
`??_C@_0M@IBNEFJCG@DBGHELP?4DLL?$AA@`
`??_C@_0M@JCPCPOEF@FlsSetValue?$AA@`
`??_C@_0M@LHEPIIOM@Broken?5pipe?$AA@`
`??_C@_0M@LOEHLCJD@Bad?5address?$AA@`
`??_C@_0M@NAAJNNGH@File?5exists?$AA@`
`??_C@_0M@PCENNPGA@?$CFd?4?$CFd?4?$CFd?4?$CFd?$AA@`
`??_C@_0N@BDPOONKD@?$CFs?5?9?5READ?5OK?$AA@`
`??_C@_0N@BJJFNCHI@WORLDMANAGER?$AA@`
`??_C@_0N@DEAKEBCF@?$CF04d?$CF02d?$CF02d?$AA@`
`??_C@_0N@EGFCBFCN@?6In?5module?3?5?$AA@`
`??_C@_0N@FEHLOILP@Invalid?5seek?$AA@`
`??_C@_0N@FFNNPOG@?$CFd?$CFd?$CFd?$CFd?$CFd?$CFc?$AA@`
`??_C@_0N@HHKAONHC@?5caused?5an?3?5?$AA@`
`??_C@_0N@INKMAOCP@SERVER_ID_17?$AA@`
`??_C@_0N@JELHDPGO@SERVER_ID_16?$AA@`
`??_C@_0N@JKPPHGME@DB_CHARACTER?$AA@`
`??_C@_0N@JOBOMEGD@?$CDCLEARFORMAT?$AA@`
`??_C@_0N@KDEBCOA@SERVER_ID_18?$AA@`
`??_C@_0N@KGIBFNOM@SERVER_ID_14?$AA@`
`??_C@_0N@KPAMOPJA@?$CDREMARKSTART?$AA@`
`??_C@_0N@LPJKGMKN@SERVER_ID_15?$AA@`
`??_C@_0N@MMJPGLJK@Domain?5error?$AA@`
`??_C@_0N@NLPGKJKJ@SERVER_ID_11?$AA@`
`??_C@_0N@OFKCJNJF@ErrorCode?$DN?$CFd?$AA@`
`??_C@_0N@OHJFCCKP@?$CDWRITEFORMAT?$AA@`
`??_C@_0N@OJMAMLCL@SERVER_ID_13?$AA@`
`??_C@_0N@PANLPKGK@SERVER_ID_12?$AA@`
`??_C@_0O@CACLKIDB@SERVER_ID_WEB?$AA@`
`??_C@_0O@DPKOEFFH@bad?5exception?$AA@`
`??_C@_0O@FIMJHPBM@Include?5?9?5?$CFs?5?$AA@`
`??_C@_0O@GFAPBMEE@?$CFs?5?9?5WRITE?5OK?$AA@`
`??_C@_0O@HDCPHFN@CallStack?4txt?$AA@`
`??_C@_0O@JMFPNKKJ@?$DMIOCP?5CLOSED?$DO?$AA@`
`??_C@_0O@MJGLKPN@DB_ACCOUNTLOG?$AA@`
`??_C@_0O@NIPGCINC@Unknown?5error?$AA@`
`??_C@_0O@OAMDNOCP@Improper?5link?$AA@`
`??_C@_0P@ECMHENGD@SERVER_ID_ZONE?$AA@`
`??_C@_0P@GHFPNOJB@bad?5allocation?$AA@`
`??_C@_0P@HALPAPNN@ErrorCode?$DN?$CFd?$AN?6?$AA@`
`??_C@_0P@HJKNJFNN@?$GAomni?5callsig?8?$AA@`
`??_C@_0P@INFHONJD@?$CF06d?5?$CFs?5?$CFs?7?$CFs?6?$AA@`
`??_C@_0P@IOBGGBBB@?5?$CFs?0?5line?5?$CF04d?$AA@`
`??_C@_0P@LFMMIPAE@File?5too?5large?$AA@`
`??_C@_0P@MCDGMPHH@?$CF04d?9?$CF02d?9?$CF02d?$AA@`
`??_C@_0P@MIGLKIOC@CorExitProcess?$AA@`
`??_C@_0P@NDHGCGKE@Is?5a?5directory?$AA@`
`??_C@_0P@NLEIANHE@No?5such?5device?$AA@`
`??_C@_0P@PKCJJLLM@Too?5many?5links?$AA@`
`??_C@_0P@PLMNPDMB@?$CF02d?3?$CF02d?3?$CF02d?$AA@`
`??_C@_15CLMNNGEL@?$AAP?$AAM?$AA?$AA@`
`??_C@_15IABLJNFO@?$AA?6?$AA?6?$AA?$AA@`
`??_C@_15JNBOKNOG@?$AA?$AN?$AA?6?$AA?$AA@`
`??_C@_15ODEHAHHF@?$AAA?$AAM?$AA?$AA@`
`??_C@_17BBDMLCIG@?$AAN?$AAo?$AAv?$AA?$AA@`
`??_C@_17BMKGEGOJ@?$AAT?$AAu?$AAe?$AA?$AA@`
`??_C@_17CJEDCEPE@?$AAW?$AAe?$AAd?$AA?$AA@`
`??_C@_17CKNLEDEC@?$AAM?$AAa?$AAr?$AA?$AA@`
`??_C@_17DKNBKCHM@?$AAJ?$AAa?$AAn?$AA?$AA@`
`??_C@_17EGKACKIF@?$AAD?$AAe?$AAc?$AA?$AA@`
`??_C@_17FNLKOI@?$AAO?$AAc?$AAt?$AA?$AA@`
`??_C@_17GGIBDPIH@?$AAS?$AAa?$AAt?$AA?$AA@`
`??_C@_17HCHCOKMG@?$AAS?$AAe?$AAp?$AA?$AA@`
`??_C@_17HFOLPPLP@?$AAF?$AAr?$AAi?$AA?$AA@`
`??_C@_17ICPELBCN@?$AAA?$AAu?$AAg?$AA?$AA@`
`??_C@_17IJPCKHK@?$AAJ?$AAu?$AAl?$AA?$AA@`
`??_C@_17KBOMKBF@?$AAM?$AAo?$AAn?$AA?$AA@`
`??_C@_17KCJGOCPB@?$AAJ?$AAu?$AAn?$AA?$AA@`
`??_C@_17LFPOIHDD@?$AAA?$AAp?$AAr?$AA?$AA@`
`??_C@_17LGKOMLJ@?$AA?4?$AA?4?$AA?4?$AA?$AA@`
`??_C@_17LMDJEKJN@?$AAF?$AAe?$AAb?$AA?$AA@`
`??_C@_17MBGCMIPB@?$AAS?$AAu?$AAn?$AA?$AA@`
`??_C@_17PDPHAADD@?$AAT?$AAh?$AAu?$AA?$AA@`
`??_C@_17PNNKMEED@?$AAM?$AAa?$AAy?$AA?$AA@`
`??_C@_19BIFMLPCD@?$AAJ?$AAu?$AAl?$AAy?$AA?$AA@`
`??_C@_19EPFLPGAP@?$AAJ?$AAu?$AAn?$AAe?$AA?$AA@`
`??_C@_1BA@BALFACEM@?$AAC?$AAO?$AAN?$AAO?$AAU?$AAT?$AA$?$AA?$AA@`
`??_C@_1BA@EFMEIEBA@?$AAJ?$AAa?$AAn?$AAu?$AAa?$AAr?$AAy?$AA?$AA@`
`??_C@_1BA@ENFBFFEK@?$AAT?$AAu?$AAe?$AAs?$AAd?$AAa?$AAy?$AA?$AA@`
`??_C@_1BA@EPANDLNG@?$AAO?$AAc?$AAt?$AAo?$AAb?$AAe?$AAr?$AA?$AA@`
`??_C@_1BC@BGLIFPF@?$AAN?$AAo?$AAv?$AAe?$AAm?$AAb?$AAe?$AAr?$AA?$AA@`
`??_C@_1BC@ENMNNPAJ@?$AAS?$AAa?$AAt?$AAu?$AAr?$AAd?$AAa?$AAy?$AA?$AA@`
`??_C@_1BC@FEMKIFH@?$AAD?$AAe?$AAc?$AAe?$AAm?$AAb?$AAe?$AAr?$AA?$AA@`
`??_C@_1BC@GDGBMEMK@?$AAH?$AAH?$AA?3?$AAm?$AAm?$AA?3?$AAs?$AAs?$AA?$AA@`
`??_C@_1BC@HHMNLIHE@?$AAT?$AAh?$AAu?$AAr?$AAs?$AAd?$AAa?$AAy?$AA?$AA@`
`??_C@_1BC@IEBCMHCM@?$AAM?$AAM?$AA?1?$AAd?$AAd?$AA?1?$AAy?$AAy?$AA?$AA@`
`??_C@_1BC@JGDDFFAM@?$AAF?$AAe?$AAb?$AAr?$AAu?$AAa?$AAr?$AAy?$AA?$AA@`
`??_C@_1BE@DKAAMBJL@?$AAS?$AAe?$AAp?$AAt?$AAe?$AAm?$AAb?$AAe?$AAr?$AA?$AA@`
`??_C@_1BE@EBOGMDOH@?$AAW?$AAe?$AAd?$AAn?$AAe?$AAs?$AAd?$AAa?$AAy?$AA?$AA@`
`??_C@_1BG@GOEBHBDC@?$AAU?$AAS?$AAE?$AAR?$AA3?$AA2?$AA?4?$AAD?$AAL?$AAL?$AA?$AA@`
`??_C@_1BI@BGOHAHKC@?$AAm?$AAs?$AAc?$AAo?$AAr?$AAe?$AAe?$AA?4?$AAd?$AAl?$AAl?$AA?$AA@`
`??_C@_1BK@DBDEIDLH@?$AAK?$AAE?$AAR?$AAN?$AAE?$AAL?$AA3?$AA2?$AA?4?$AAD?$AAL?$AAL?$AA?$AA@`
`??_C@_1BK@KMOMNAAI@?$AAS?$AAI?$AAN?$AAG?$AA?5?$AAe?$AAr?$AAr?$AAo?$AAr?$AA?$AN?$AA?6?$AA?$AA@`
`??_C@_1BM@JBBEPPHI@?$AAT?$AAL?$AAO?$AAS?$AAS?$AA?5?$AAe?$AAr?$AAr?$AAo?$AAr?$AA?$AN?$AA?6?$AA?$AA@`
`??_C@_1BO@BFCDCGC@?$AAD?$AAO?$AAM?$AAA?$AAI?$AAN?$AA?5?$AAe?$AAr?$AAr?$AAo?$AAr?$AA?$AN?$AA?6?$AA?$AA@`
`??_C@_1BO@BKOMIGKJ@?$AAr?$AAu?$AAn?$AAt?$AAi?$AAm?$AAe?$AA?5?$AAe?$AAr?$AAr?$AAo?$AAr?$AA?5?$AA?$AA@`
`??_C@_1BOO@KGEDBGAJ@?$AAR?$AA6?$AA0?$AA3?$AA3?$AA?$AN?$AA?6?$AA?9?$AA?5?$AAA?$AAt?$AAt?$AAe?$AAm?$AAp?$AAt?$AA?5?$AAt?$AAo?$AA?5?$AAu?$AAs?$AAe?$AA?5?$AAM?$AAS?$AAI?$AAL?$AA?5?$AAc?$AAo?$AAd@`
`??_C@_1CI@KNAKOEBC@?$AAd?$AAd?$AAd?$AAd?$AA?0?$AA?5?$AAM?$AAM?$AAM?$AAM?$AA?5?$AAd?$AAd?$AA?0?$AA?5?$AAy?$AAy?$AAy?$AAy?$AA?$AA@`
`??_C@_1CO@EAEJAADC@?$AA?$DM?$AAp?$AAr?$AAo?$AAg?$AAr?$AAa?$AAm?$AA?5?$AAn?$AAa?$AAm?$AAe?$AA?5?$AAu?$AAn?$AAk?$AAn?$AAo?$AAw?$AAn?$AA?$DO?$AA?$AA@`
`??_C@_1DE@JNGNBFGO@?$AAR?$AAu?$AAn?$AAt?$AAi?$AAm?$AAe?$AA?5?$AAE?$AAr?$AAr?$AAo?$AAr?$AA?$CB?$AA?6?$AA?6?$AAP?$AAr?$AAo?$AAg?$AAr?$AAa?$AAm?$AA?3?$AA?5?$AA?$AA@`
`??_C@_1DO@BMFCDCD@?$AAR?$AA6?$AA0?$AA3?$AA0?$AA?$AN?$AA?6?$AA?9?$AA?5?$AAC?$AAR?$AAT?$AA?5?$AAn?$AAo?$AAt?$AA?5?$AAi?$AAn?$AAi?$AAt?$AAi?$AAa?$AAl?$AAi?$AAz?$AAe?$AAd?$AA?$AN?$AA?6?$AA?$AA@`
`??_C@_1EC@JIBHAOPH@?$AAR?$AA6?$AA0?$AA1?$AA8?$AA?$AN?$AA?6?$AA?9?$AA?5?$AAu?$AAn?$AAe?$AAx?$AAp?$AAe?$AAc?$AAt?$AAe?$AAd?$AA?5?$AAh?$AAe?$AAa?$AAp?$AA?5?$AAe?$AAr?$AAr?$AAo?$AAr?$AA?$AN?$AA?6@`
`??_C@_1EG@BEHAGFJD@?$AAR?$AA6?$AA0?$AA1?$AA0?$AA?$AN?$AA?6?$AA?9?$AA?5?$AAa?$AAb?$AAo?$AAr?$AAt?$AA?$CI?$AA?$CJ?$AA?5?$AAh?$AAa?$AAs?$AA?5?$AAb?$AAe?$AAe?$AAn?$AA?5?$AAc?$AAa?$AAl?$AAl?$AAe?$AAd@`
`??_C@_1EK@HHFLMAOL@?$AAR?$AA6?$AA0?$AA2?$AA8?$AA?$AN?$AA?6?$AA?9?$AA?5?$AAu?$AAn?$AAa?$AAb?$AAl?$AAe?$AA?5?$AAt?$AAo?$AA?5?$AAi?$AAn?$AAi?$AAt?$AAi?$AAa?$AAl?$AAi?$AAz?$AAe?$AA?5?$AAh?$AAe@`
`??_C@_1EK@MBDPDCGA@?$AAM?$AAi?$AAc?$AAr?$AAo?$AAs?$AAo?$AAf?$AAt?$AA?5?$AAV?$AAi?$AAs?$AAu?$AAa?$AAl?$AA?5?$AAC?$AA?$CL?$AA?$CL?$AA?5?$AAR?$AAu?$AAn?$AAt?$AAi?$AAm?$AAe?$AA?5?$AAL?$AAi?$AAb@`
`??_C@_1EM@MAADIHMB@?$AAR?$AA6?$AA0?$AA2?$AA5?$AA?$AN?$AA?6?$AA?9?$AA?5?$AAp?$AAu?$AAr?$AAe?$AA?5?$AAv?$AAi?$AAr?$AAt?$AAu?$AAa?$AAl?$AA?5?$AAf?$AAu?$AAn?$AAc?$AAt?$AAi?$AAo?$AAn?$AA?5?$AAc@`
`??_C@_1FC@ECHBIFBC@?$AAR?$AA6?$AA0?$AA1?$AA9?$AA?$AN?$AA?6?$AA?9?$AA?5?$AAu?$AAn?$AAa?$AAb?$AAl?$AAe?$AA?5?$AAt?$AAo?$AA?5?$AAo?$AAp?$AAe?$AAn?$AA?5?$AAc?$AAo?$AAn?$AAs?$AAo?$AAl?$AAe?$AA?5@`
`??_C@_1FE@LLNEDJMD@?$AAR?$AA6?$AA0?$AA0?$AA8?$AA?$AN?$AA?6?$AA?9?$AA?5?$AAn?$AAo?$AAt?$AA?5?$AAe?$AAn?$AAo?$AAu?$AAg?$AAh?$AA?5?$AAs?$AAp?$AAa?$AAc?$AAe?$AA?5?$AAf?$AAo?$AAr?$AA?5?$AAa?$AAr@`
`??_C@_1FI@HONFMGBI@?$AAR?$AA6?$AA0?$AA0?$AA9?$AA?$AN?$AA?6?$AA?9?$AA?5?$AAn?$AAo?$AAt?$AA?5?$AAe?$AAn?$AAo?$AAu?$AAg?$AAh?$AA?5?$AAs?$AAp?$AAa?$AAc?$AAe?$AA?5?$AAf?$AAo?$AAr?$AA?5?$AAe?$AAn@`
`??_C@_1FI@LOGNIKDM@?$AAR?$AA6?$AA0?$AA1?$AA6?$AA?$AN?$AA?6?$AA?9?$AA?5?$AAn?$AAo?$AAt?$AA?5?$AAe?$AAn?$AAo?$AAu?$AAg?$AAh?$AA?5?$AAs?$AAp?$AAa?$AAc?$AAe?$AA?5?$AAf?$AAo?$AAr?$AA?5?$AAt?$AAh@`
`??_C@_1FK@BEOGODMC@?$AAR?$AA6?$AA0?$AA1?$AA7?$AA?$AN?$AA?6?$AA?9?$AA?5?$AAu?$AAn?$AAe?$AAx?$AAp?$AAe?$AAc?$AAt?$AAe?$AAd?$AA?5?$AAm?$AAu?$AAl?$AAt?$AAi?$AAt?$AAh?$AAr?$AAe?$AAa?$AAd?$AA?5@`
`??_C@_1FK@PGACCAFB@?$AAR?$AA6?$AA0?$AA0?$AA2?$AA?$AN?$AA?6?$AA?9?$AA?5?$AAf?$AAl?$AAo?$AAa?$AAt?$AAi?$AAn?$AAg?$AA?5?$AAp?$AAo?$AAi?$AAn?$AAt?$AA?5?$AAs?$AAu?$AAp?$AAp?$AAo?$AAr?$AAt?$AA?5@`
`??_C@_1GG@GOPILAJP@?$AAR?$AA6?$AA0?$AA3?$AA2?$AA?$AN?$AA?6?$AA?9?$AA?5?$AAn?$AAo?$AAt?$AA?5?$AAe?$AAn?$AAo?$AAu?$AAg?$AAh?$AA?5?$AAs?$AAp?$AAa?$AAc?$AAe?$AA?5?$AAf?$AAo?$AAr?$AA?5?$AAl?$AAo@`
`??_C@_1GK@FHCKBEFA@?$AAR?$AA6?$AA0?$AA2?$AA4?$AA?$AN?$AA?6?$AA?9?$AA?5?$AAn?$AAo?$AAt?$AA?5?$AAe?$AAn?$AAo?$AAu?$AAg?$AAh?$AA?5?$AAs?$AAp?$AAa?$AAc?$AAe?$AA?5?$AAf?$AAo?$AAr?$AA?5?$AA_?$AAo@`
`??_C@_1GK@MCAAGJMO@?$AAR?$AA6?$AA0?$AA2?$AA6?$AA?$AN?$AA?6?$AA?9?$AA?5?$AAn?$AAo?$AAt?$AA?5?$AAe?$AAn?$AAo?$AAu?$AAg?$AAh?$AA?5?$AAs?$AAp?$AAa?$AAc?$AAe?$AA?5?$AAf?$AAo?$AAr?$AA?5?$AAs?$AAt@`
`??_C@_1GK@MFGOKLAG@?$AAR?$AA6?$AA0?$AA2?$AA7?$AA?$AN?$AA?6?$AA?9?$AA?5?$AAn?$AAo?$AAt?$AA?5?$AAe?$AAn?$AAo?$AAu?$AAg?$AAh?$AA?5?$AAs?$AAp?$AAa?$AAc?$AAe?$AA?5?$AAf?$AAo?$AAr?$AA?5?$AAl?$AAo@`
`??_C@_1M@GJNLMHFD@?$AAA?$AAp?$AAr?$AAi?$AAl?$AA?$AA@`
`??_C@_1M@IKEENEDF@?$AAM?$AAa?$AAr?$AAc?$AAh?$AA?$AA@`
`??_C@_1MG@ENCOOIDF@?$AAR?$AA6?$AA0?$AA3?$AA1?$AA?$AN?$AA?6?$AA?9?$AA?5?$AAA?$AAt?$AAt?$AAe?$AAm?$AAp?$AAt?$AA?5?$AAt?$AAo?$AA?5?$AAi?$AAn?$AAi?$AAt?$AAi?$AAa?$AAl?$AAi?$AAz?$AAe?$AA?5?$AAt@`
`??_C@_1O@CEDCILHN@?$AA?$CI?$AAn?$AAu?$AAl?$AAl?$AA?$CJ?$AA?$AA@`
`??_C@_1O@IHNHDHPB@?$AAS?$AAu?$AAn?$AAd?$AAa?$AAy?$AA?$AA@`
`??_C@_1O@MMNBFLIA@?$AAM?$AAo?$AAn?$AAd?$AAa?$AAy?$AA?$AA@`
`??_C@_1O@PAHLKOAC@?$AAA?$AAu?$AAg?$AAu?$AAs?$AAt?$AA?$AA@`
`??_C@_1O@PDICJHAG@?$AAF?$AAr?$AAi?$AAd?$AAa?$AAy?$AA?$AA@`
`??_E?$PROTOCOLFUNCTIONTEMPLETE@P8CParserAccountDB@@AEHPAVCLoginAccountDBSession@@PAUNETPACKET@@H@Z@@UAEPAXI@Z`
`??_E?$PROTOCOLFUNCTIONTEMPLETE@P8CParserAccountLogDB@@AEHPAVCLoginAccountLogDBSession@@PAUNETPACKET@@H@Z@@UAEPAXI@Z`
`??_E?$PROTOCOLFUNCTIONTEMPLETE@P8CParserClient@@AEHPAVCLoginClientSession@@PAUNETPACKET@@H@Z@@UAEPAXI@Z`
`??_E?$PROTOCOLFUNCTIONTEMPLETE@P8CParserOPTool@@AEHPAVCLoginOPToolSession@@PAUNETPACKET@@H@Z@@UAEPAXI@Z`
`??_E?$PROTOCOLFUNCTIONTEMPLETE@P8CParserWorldManager@@AEHPAVCLoginWorldManagerSession@@PAUNETPACKET@@H@Z@@UAEPAXI@Z`
`??_ECIOBuffer@@UAEPAXI@Z`
`??_ECIOCP_Process_Interfece@@UAEPAXI@Z`
`??_ECIOCP_Process_LSession@@UAEPAXI@Z`
`??_ECIOCP_Process_Socket@@UAEPAXI@Z`
`??_ECMD5Checksum@@MAEPAXI@Z`
`??_EString@@UAEPAXI@Z`
`??_EWinService@@UAEPAXI@Z`
`??_E_Generic_error_category@std@@UAEPAXI@Z`
`??_E_Iostream_error_category@std@@UAEPAXI@Z`
`??_E_System_error_category@std@@UAEPAXI@Z`
`??_Ebad_alloc@std@@UAEPAXI@Z`
`??_Ebad_exception@std@@UAEPAXI@Z`
`??_Eerror_category@std@@UAEPAXI@Z`
`??_Eexception@std@@UAEPAXI@Z`
`??_Elength_error@std@@UAEPAXI@Z`
`??_Elogic_error@std@@UAEPAXI@Z`
`??_Eout_of_range@std@@UAEPAXI@Z`
`??_Etype_info@@UAEPAXI@Z`
`??_G?$PROTOCOLFUNCTIONTEMPLETE@P8CParserAccountDB@@AEHPAVCLoginAccountDBSession@@PAUNETPACKET@@H@Z@@UAEPAXI@Z`
`??_G?$PROTOCOLFUNCTIONTEMPLETE@P8CParserAccountLogDB@@AEHPAVCLoginAccountLogDBSession@@PAUNETPACKET@@H@Z@@UAEPAXI@Z`
`??_G?$PROTOCOLFUNCTIONTEMPLETE@P8CParserClient@@AEHPAVCLoginClientSession@@PAUNETPACKET@@H@Z@@UAEPAXI@Z`
`??_G?$PROTOCOLFUNCTIONTEMPLETE@P8CParserOPTool@@AEHPAVCLoginOPToolSession@@PAUNETPACKET@@H@Z@@UAEPAXI@Z`
`??_G?$PROTOCOLFUNCTIONTEMPLETE@P8CParserWorldManager@@AEHPAVCLoginWorldManagerSession@@PAUNETPACKET@@H@Z@@UAEPAXI@Z`
`??_GCIOBuffer@@UAEPAXI@Z`
`??_GCIOCP_Process_Interfece@@UAEPAXI@Z`
`??_GCIOCP_Process_LSession@@UAEPAXI@Z`
`??_GCIOCP_Process_Socket@@UAEPAXI@Z`
`??_GCMD5Checksum@@MAEPAXI@Z`
`??_GString@@UAEPAXI@Z`
`??_GWinService@@UAEPAXI@Z`
`??_G_Generic_error_category@std@@UAEPAXI@Z`
`??_G_Iostream_error_category@std@@UAEPAXI@Z`
`??_G_System_error_category@std@@UAEPAXI@Z`
`??_Gbad_alloc@std@@UAEPAXI@Z`
`??_Gbad_exception@std@@UAEPAXI@Z`
`??_Gerror_category@std@@UAEPAXI@Z`
`??_Gexception@std@@UAEPAXI@Z`
`??_Glength_error@std@@UAEPAXI@Z`
`??_Glogic_error@std@@UAEPAXI@Z`
`??_Gout_of_range@std@@UAEPAXI@Z`
`??_Gtype_info@@UAEPAXI@Z`
`??_L@YGXPAXIHP6EX0@Z1@Z`
`??_M@YGXPAXIHP6EX0@Z@Z`
`??_R0?AV?$PROTOCOLFUNCTIONTEMPLETE@P8CParserAccountDB@@AEHPAVCLoginAccountDBSession@@PAUNETPACKET@@H@Z@@@8`
`??_R0?AV?$PROTOCOLFUNCTIONTEMPLETE@P8CParserAccountLogDB@@AEHPAVCLoginAccountLogDBSession@@PAUNETPACKET@@H@Z@@@8`
`??_R0?AV?$PROTOCOLFUNCTIONTEMPLETE@P8CParserClient@@AEHPAVCLoginClientSession@@PAUNETPACKET@@H@Z@@@8`
`??_R0?AV?$PROTOCOLFUNCTIONTEMPLETE@P8CParserOPTool@@AEHPAVCLoginOPToolSession@@PAUNETPACKET@@H@Z@@@8`
`??_R0?AV?$PROTOCOLFUNCTIONTEMPLETE@P8CParserWorldManager@@AEHPAVCLoginWorldManagerSession@@PAUNETPACKET@@H@Z@@@8`
`??_R0?AV?$Singleton@VWinService@@@@@8`
`??_R0?AVCIOBuffer@@@8`
`??_R0?AVCIOCP_Process_Interfece@@@8`
`??_R0?AVCIOCP_Process_LSession@@@8`
`??_R0?AVCIOCP_Process_Socket@@@8`
`??_R0?AVCLoginBaseSessionManager@@@8`
`??_R0?AVCLoginClientSessionManager@@@8`
`??_R0?AVCLoginOPToolSessionManager@@@8`
`??_R0?AVCLoginWorldManagerSessionManager@@@8`
`??_R0?AVCMD5Checksum@@@8`
`??_R0?AVCPacket@@@8`
`??_R0?AVCSocket_Acceptor_Process_Interface@@@8`
`??_R0?AVString@@@8`
`??_R0?AVWinService@@@8`
`??_R0?AV_Generic_error_category@std@@@8`
`??_R0?AV_Iostream_error_category@std@@@8`
`??_R0?AV_System_error_category@std@@@8`
`??_R0?AVbad_alloc@std@@@8`
`??_R0?AVbad_exception@std@@@8`
`??_R0?AVerror_category@std@@@8`
`??_R0?AVexception@std@@@8`
`??_R0?AVlength_error@std@@@8`
`??_R0?AVlogic_error@std@@@8`
`??_R0?AVout_of_range@std@@@8`
`??_R0?AVtype_info@@@8`
`??_R0PAVInvalidPacketException@CPacket@@@8`
`??_R0PAX@8`
`??_R1A@?0A@EA@?$PROTOCOLFUNCTIONTEMPLETE@P8CParserAccountDB@@AEHPAVCLoginAccountDBSession@@PAUNETPACKET@@H@Z@@8`
`??_R1A@?0A@EA@?$PROTOCOLFUNCTIONTEMPLETE@P8CParserAccountLogDB@@AEHPAVCLoginAccountLogDBSession@@PAUNETPACKET@@H@Z@@8`
`??_R1A@?0A@EA@?$PROTOCOLFUNCTIONTEMPLETE@P8CParserClient@@AEHPAVCLoginClientSession@@PAUNETPACKET@@H@Z@@8`
`??_R1A@?0A@EA@?$PROTOCOLFUNCTIONTEMPLETE@P8CParserOPTool@@AEHPAVCLoginOPToolSession@@PAUNETPACKET@@H@Z@@8`
`??_R1A@?0A@EA@?$PROTOCOLFUNCTIONTEMPLETE@P8CParserWorldManager@@AEHPAVCLoginWorldManagerSession@@PAUNETPACKET@@H@Z@@8`
`??_R1A@?0A@EA@?$Singleton@VWinService@@@@8`
`??_R1A@?0A@EA@CIOBuffer@@8`
`??_R1A@?0A@EA@CIOCP_Process_Interfece@@8`
`??_R1A@?0A@EA@CIOCP_Process_LSession@@8`
`??_R1A@?0A@EA@CIOCP_Process_Socket@@8`
`??_R1A@?0A@EA@CLoginBaseSessionManager@@8`
`??_R1A@?0A@EA@CLoginClientSessionManager@@8`
`??_R1A@?0A@EA@CLoginOPToolSessionManager@@8`
`??_R1A@?0A@EA@CLoginWorldManagerSessionManager@@8`
`??_R1A@?0A@EA@CMD5Checksum@@8`
`??_R1A@?0A@EA@CPacket@@8`
`??_R1A@?0A@EA@CSocket_Acceptor_Process_Interface@@8`
`??_R1A@?0A@EA@String@@8`
`??_R1A@?0A@EA@WinService@@8`
`??_R1A@?0A@EA@_Generic_error_category@std@@8`
`??_R1A@?0A@EA@_Iostream_error_category@std@@8`
`??_R1A@?0A@EA@_System_error_category@std@@8`
`??_R1A@?0A@EA@bad_alloc@std@@8`
`??_R1A@?0A@EA@bad_exception@std@@8`
`??_R1A@?0A@EA@error_category@std@@8`
`??_R1A@?0A@EA@exception@std@@8`
`??_R1A@?0A@EA@length_error@std@@8`
`??_R1A@?0A@EA@logic_error@std@@8`
`??_R1A@?0A@EA@out_of_range@std@@8`
`??_R1A@?0A@EA@type_info@@8`
`??_R2?$PROTOCOLFUNCTIONTEMPLETE@P8CParserAccountDB@@AEHPAVCLoginAccountDBSession@@PAUNETPACKET@@H@Z@@8`
`??_R2?$PROTOCOLFUNCTIONTEMPLETE@P8CParserAccountLogDB@@AEHPAVCLoginAccountLogDBSession@@PAUNETPACKET@@H@Z@@8`
`??_R2?$PROTOCOLFUNCTIONTEMPLETE@P8CParserClient@@AEHPAVCLoginClientSession@@PAUNETPACKET@@H@Z@@8`
`??_R2?$PROTOCOLFUNCTIONTEMPLETE@P8CParserOPTool@@AEHPAVCLoginOPToolSession@@PAUNETPACKET@@H@Z@@8`
`??_R2?$PROTOCOLFUNCTIONTEMPLETE@P8CParserWorldManager@@AEHPAVCLoginWorldManagerSession@@PAUNETPACKET@@H@Z@@8`
`??_R2?$Singleton@VWinService@@@@8`
`??_R2CIOBuffer@@8`
`??_R2CIOCP_Process_Interfece@@8`
`??_R2CIOCP_Process_LSession@@8`
`??_R2CIOCP_Process_Socket@@8`
`??_R2CLoginBaseSessionManager@@8`
`??_R2CLoginClientSessionManager@@8`
`??_R2CLoginOPToolSessionManager@@8`
`??_R2CLoginWorldManagerSessionManager@@8`
`??_R2CMD5Checksum@@8`
`??_R2CPacket@@8`
`??_R2CSocket_Acceptor_Process_Interface@@8`
`??_R2String@@8`
`??_R2WinService@@8`
`??_R2_Generic_error_category@std@@8`
`??_R2_Iostream_error_category@std@@8`
`??_R2_System_error_category@std@@8`
`??_R2bad_alloc@std@@8`
`??_R2bad_exception@std@@8`
`??_R2error_category@std@@8`
`??_R2exception@std@@8`
`??_R2length_error@std@@8`
`??_R2logic_error@std@@8`
`??_R2out_of_range@std@@8`
`??_R2type_info@@8`
`??_R3?$PROTOCOLFUNCTIONTEMPLETE@P8CParserAccountDB@@AEHPAVCLoginAccountDBSession@@PAUNETPACKET@@H@Z@@8`
`??_R3?$PROTOCOLFUNCTIONTEMPLETE@P8CParserAccountLogDB@@AEHPAVCLoginAccountLogDBSession@@PAUNETPACKET@@H@Z@@8`
`??_R3?$PROTOCOLFUNCTIONTEMPLETE@P8CParserClient@@AEHPAVCLoginClientSession@@PAUNETPACKET@@H@Z@@8`
`??_R3?$PROTOCOLFUNCTIONTEMPLETE@P8CParserOPTool@@AEHPAVCLoginOPToolSession@@PAUNETPACKET@@H@Z@@8`
`??_R3?$PROTOCOLFUNCTIONTEMPLETE@P8CParserWorldManager@@AEHPAVCLoginWorldManagerSession@@PAUNETPACKET@@H@Z@@8`
`??_R3?$Singleton@VWinService@@@@8`
`??_R3CIOBuffer@@8`
`??_R3CIOCP_Process_Interfece@@8`
`??_R3CIOCP_Process_LSession@@8`
`??_R3CIOCP_Process_Socket@@8`
`??_R3CLoginBaseSessionManager@@8`
`??_R3CLoginClientSessionManager@@8`
`??_R3CLoginOPToolSessionManager@@8`
`??_R3CLoginWorldManagerSessionManager@@8`
`??_R3CMD5Checksum@@8`
`??_R3CPacket@@8`
`??_R3CSocket_Acceptor_Process_Interface@@8`
`??_R3String@@8`
`??_R3WinService@@8`
`??_R3_Generic_error_category@std@@8`
`??_R3_Iostream_error_category@std@@8`
`??_R3_System_error_category@std@@8`
`??_R3bad_alloc@std@@8`
`??_R3bad_exception@std@@8`
`??_R3error_category@std@@8`
`??_R3exception@std@@8`
`??_R3length_error@std@@8`
`??_R3logic_error@std@@8`
`??_R3out_of_range@std@@8`
`??_R3type_info@@8`
`??_R4?$PROTOCOLFUNCTIONTEMPLETE@P8CParserAccountDB@@AEHPAVCLoginAccountDBSession@@PAUNETPACKET@@H@Z@@6B@`
`??_R4?$PROTOCOLFUNCTIONTEMPLETE@P8CParserAccountLogDB@@AEHPAVCLoginAccountLogDBSession@@PAUNETPACKET@@H@Z@@6B@`
`??_R4?$PROTOCOLFUNCTIONTEMPLETE@P8CParserClient@@AEHPAVCLoginClientSession@@PAUNETPACKET@@H@Z@@6B@`
`??_R4?$PROTOCOLFUNCTIONTEMPLETE@P8CParserOPTool@@AEHPAVCLoginOPToolSession@@PAUNETPACKET@@H@Z@@6B@`
`??_R4?$PROTOCOLFUNCTIONTEMPLETE@P8CParserWorldManager@@AEHPAVCLoginWorldManagerSession@@PAUNETPACKET@@H@Z@@6B@`
`??_R4CIOBuffer@@6B@`
`??_R4CIOCP_Process_Interfece@@6B@`
`??_R4CIOCP_Process_LSession@@6B@`
`??_R4CIOCP_Process_Socket@@6B@`
`??_R4CLoginBaseSessionManager@@6B@`
`??_R4CLoginClientSessionManager@@6B@`
`??_R4CLoginOPToolSessionManager@@6B@`
`??_R4CLoginWorldManagerSessionManager@@6B@`
`??_R4CMD5Checksum@@6B@`
`??_R4CPacket@@6B@`
`??_R4CSocket_Acceptor_Process_Interface@@6B@`
`??_R4String@@6B@`
`??_R4WinService@@6B@`
`??_R4_Generic_error_category@std@@6B@`
`??_R4_Iostream_error_category@std@@6B@`
`??_R4_System_error_category@std@@6B@`
`??_R4bad_alloc@std@@6B@`
`??_R4bad_exception@std@@6B@`
`??_R4error_category@std@@6B@`
`??_R4exception@std@@6B@`
`??_R4length_error@std@@6B@`
`??_R4logic_error@std@@6B@`
`??_R4out_of_range@std@@6B@`
`??_R4type_info@@6B@`
`??_U@YAPAXI@Z`
`??_V@YAXPAX@Z`
`?AcceptThreadRing@CSocket_Acceptor@@SGKPAX@Z`
`?Accept_Process@CSocket_Acceptor_Process_Interface@@UAEHIPAUsockaddr_in@@@Z`
`?ActiveSession@CLoginBaseSessionManager@@UAEPAULOGIN_SESSION_LIST@1@IPAUsockaddr@@@Z`
`?ActiveSession@CLoginClientSessionManager@@UAEPAULOGIN_SESSION_LIST@CLoginBaseSessionManager@@IPAUsockaddr@@@Z`
`?ActiveSession@CLoginWorldManagerSessionManager@@UAEPAULOGIN_SESSION_LIST@CLoginBaseSessionManager@@IPAUsockaddr@@@Z`
`?Add@COTPLogin@@QAEHPAVCOTPData@@@Z`
`?AddFormat@CCsl@@AAEHPAUCSL_FORMAT_LIST@1@@Z`
`?AddResultMsg@CCsl@@AAEHPAD@Z`
`?Alloc@CIOBuffer@@SAPAV1@XZ`
`?BroadCast@CLoginWorldManagerSessionManager@@QAEHPAXH@Z`
`?BroadCastWorldStatus@CLoginClientSessionManager@@QAEXXZ`
`?CH_ReadProcessMemory@@YGHPAX_K0KPAK@Z`
`?CheckConnectionValidation@CParserAccountDB@@QAEHPAVCLoginAccountDBSession@@PAUNETPACKET@@H@Z`
`?CheckConnectionValidation@CParserAccountLogDB@@QAEHPAVCLoginAccountLogDBSession@@PAUNETPACKET@@H@Z`
`?CheckConnectionValidation@CParserClient@@QAEHPAVCLoginClientSession@@PAUNETPACKET@@H@Z`
`?CheckConnectionValidation@CParserOPTool@@QAEHPAVCLoginOPToolSession@@PAUNETPACKET@@H@Z`
`?CheckConnectionValidation@CParserWorldManager@@QAEHPAVCLoginWorldManagerSession@@PAUNETPACKET@@H@Z`
`?CheckHeartBeat@CLoginBaseSession@@QAEHXZ`
`?Clear@CCsl@@QAEXXZ`
`?Clear@CGdp@@AAEXXZ`
`?Clear@CPacket@@UAEXXZ`
`?ClearDatas@CCsl@@AAEXXZ`
`?ClearFormats@CCsl@@AAEXXZ`
`?Close@CCsl@@QAEXXZ`
`?Close@CIOCP@@QAEXXZ`
`?Close@CLoginBaseSession@@QAEHXZ`
`?Close@CLoginClientSessionManager@@QAEXG@Z`
`?Close@CSocket_IOCP@@QAEHXZ`
`?Close@CToken@@QAEXXZ`
`?CloseHandle@CGdp@@QAEHPAX@Z`
`?CloseUseIOCP@CSocket_IOCP@@QAEXPAVCIOCP@@@Z`
`?Connect@CLoginBaseSession@@QAEHPADH0HPAVCIOCP@@@Z`
`?Connect@CSocket_IOCP@@QAEHPADH0H@Z`
`?ConnectAccountLogServer@LoginServer@@QAEXXZ`
`?CreateFileA@CGdp@@QAEPAXPBDKKPAU_SECURITY_ATTRIBUTES@@KKPAX@Z`
`?Decode@CPacket@@UAEXXZ`
`?DelByDueTime@COTPLogin@@QAEHJ@Z`
`?DelByIP@COTPLogin@@QAEHUin_addr@@@Z`
`?DelByOTP@COTPLogin@@QAEHPATName8@@@Z`
`?DissconnectAllSessions@CLoginBaseSessionManager@@QAEXXZ`
`?EmptyToActive@CLoginBaseSessionManager@@IAEXPAULOGIN_SESSION_LIST@1@@Z`
`?Encode@CPacket@@UAEXXZ`
`?FillInStackFrame@@YAXPAU_CONTEXT@@@Z`
`?Final@CMD5Checksum@@IAE?AV?$basic_string@DU?$char_traits@D@std@@V?$allocator@D@2@@std@@XZ`
`?Find@COTPLogin@@QAEPAUOTP_LIST@1@PATName8@@@Z`
`?Free@CIOBuffer@@QAEXXZ`
`?FreeBuffer@CSocket_IOCP@@AAEXXZ`
`?FreeSessions@CLoginBaseSessionManager@@QAEXXZ`
`?FreeSessions@CLoginClientSessionManager@@QAEXXZ`
`?FreeSessions@CLoginOPToolSessionManager@@QAEXXZ`
`?FreeSessions@CLoginWorldManagerSessionManager@@QAEXXZ`
`?FuncForStack@MiniDumper@@2P6AXXZA`
`?GdpClose@CGdp@@QAEHXZ`
`?GdpCloseFile@CGdp@@AAEHXZ`
`?GdpDecryptData@CGdp@@AAEXPAXK@Z`
`?GdpDeleteFile@CGdp@@AAEHK@Z`
`?GdpDeleteFile@CGdp@@AAEHPBD@Z`
`?GdpGetEmptyChunk@CGdp@@AAEKXZ`
`?GdpMakeEmptyChunk@CGdp@@AAEKK@Z`
`?GdpSearchFile@CGdp@@AAEKPBD@Z`
`?GdpSetFilePointer@CGdp@@AAEKJPAJK@Z`
`?GdpUpdateChunk@CGdp@@AAEHK@Z`
`?GdpWriteChunk@CGdp@@AAEHPAUGDP_CHUNK@1@@Z`
`?GetAccepted@CSocket_Acceptor@@QAEHPAUACCEPTED_SOCKET_INFO@1@H@Z`
`?GetClientValidation@CLoginWorldManagerSessionManager@@QAEGH@Z`
`?GetCurrentTimeString2@@YAPBDH@Z`
`?GetCurrentTimeString@@YAPBDH@Z`
`?GetData@CCsl@@QAEPAXHH@Z`
`?GetDataInfo@CCsl@@QAEPAUCSL_DATA_LIST@1@H@Z`
`?GetDataPtr@CPacket@@UAEPADXZ`
`?GetDataSize@CPacket@@UAEGXZ`
`?GetDataToken@CCsl@@AAEPADXZ`
`?GetFileSize@CGdp@@QAEKPAXPAK@Z`
`?GetFormat@CCsl@@QAEPAUCSL_FORMAT_LIST@1@H@Z`
`?GetIDPtr@CPacket@@UAEPAGXZ`
`?GetLastErrorStr@@YAPBDKH@Z`
`?GetMD5@CMD5Checksum@@SA?AV?$basic_string@DU?$char_traits@D@std@@V?$allocator@D@2@@std@@PAEI@Z`
`?GetMyServerInfo@CServerInfo@@QAEHPAUMY_SERVER@1@@Z`
`?GetNumDatas@CCsl@@QAEHXZ`
`?GetNumOfData@CServerInfo@@QAEHXZ`
`?GetNumOfWorld@CServerInfo@@QAEHXZ`
`?GetPacket@CPacket@@UAEHPAGPAPADPAH@Z`
`?GetPacketSize@CPacket@@UAEHPAH@Z`
`?GetSendPtr@CSendPacket@@QAEPAXXZ`
`?GetSendSize@CSendPacket@@QAEKXZ`
`?GetServerIndex@CServerInfo@@QAEHHHHH@Z`
`?GetServerInfo@CServerInfo@@QAEHPAUSERVER_INFO@1@H@Z`
`?GetServerInfo@CServerInfo@@QAEHPAUSERVER_INFO@1@HHHH@Z`
`?GetSession@CLoginClientSessionManager@@QAEPAVCLoginClientSession@@G@Z`
`?GetSessionMode@CLoginClientSession@@QAE?AW4SessionMode@1@XZ`
`?GetShineServerIDName@@YAPBDH@Z`
`?GetShineServerIDShortName@@YAPBDH@Z`
`?GetTime@CGTimer@@SAKXZ`
`?GetToken@CToken@@QAEPADXZ`
`?GetTokenString@CToken@@QAEPADPAH@Z`
`?GetWorldManagerConnectInfo@CLoginWorldManagerSessionManager@@QAEHHPAUPROTO_NC_USER_WORLDSELECT_ACK@@@Z`
`?GetWorldManagerInfo@CLoginWorldManagerSessionManager@@QAEXPAPAUPROTO_NC_USER_LOGIN_ACK@@@Z`
`?GetWorldName@CServerInfo@@QAEHHPAUWORLD_NAME@1@@Z`
`?GetWriteDataPtr@CPacket@@QAEPADXZ`
`?GetWriteableBufferSize@CPacket@@QAEHXZ`
`?GoBegin@CToken@@QAEHXZ`
`?GoNextLine@CToken@@QAEHXZ`
`?GoStartString@CToken@@QAEPADXZ`
`?HandleIsValid@CLoginClientSessionManager@@QAEHG@Z`
`?ID@CPacket@@UAEAAV1@GHPAD@Z`
`?ID@CPacket@@UAEGXZ`
`?ID@CSendPacket@@QAEAAV1@GKPAX@Z`
`?IOBufferList@@3PAVIOBufferContainer@@A`
`?IOCP_CloseProcess@CIOCP_Process_Interfece@@UAEXPAUIOCP_OVERLAPPED@CIOCP@@@Z`
`?IOCP_CloseProcess@CIOCP_Process_LSession@@UAEXPAUIOCP_OVERLAPPED@CIOCP@@@Z`
`?IOCP_Process@CIOCP_Process_Interfece@@UAEHPAUIOCP_OVERLAPPED@CIOCP@@K@Z`
`?IOCP_Process@CIOCP_Process_LSession@@UAEHPAUIOCP_OVERLAPPED@CIOCP@@K@Z`
`?IOCP_Process@CIOCP_Process_Socket@@UAEHPAUIOCP_OVERLAPPED@CIOCP@@K@Z`
`?InactiveSession@CLoginBaseSessionManager@@UAEXPAULOGIN_SESSION_LIST@1@@Z`
`?InactiveSession@CLoginClientSessionManager@@UAEXPAULOGIN_SESSION_LIST@CLoginBaseSessionManager@@@Z`
`?InactiveSession@CLoginWorldManagerSessionManager@@UAEXPAULOGIN_SESSION_LIST@CLoginBaseSessionManager@@@Z`
`?IncludeFile@CCsl@@AAEXXZ`
`?InitSessions@CLoginBaseSessionManager@@QAEHH@Z`
`?InitSessions@CLoginClientSessionManager@@QAEHH@Z`
`?InitSessions@CLoginOPToolSessionManager@@QAEHH@Z`
`?InitSessions@CLoginWorldManagerSessionManager@@QAEHH@Z`
`?InitWorldManagerInfo@CLoginWorldManagerSessionManager@@QAEHXZ`
`?IsAddable@COTPLogin@@QAEHK@Z`
`?IsTokenID@CToken@@QAEKPADPAPADK@Z`
`?IsValidHeader@CPacket@@UAEHXZ`
`?IsValidPacket@CPacket@@UAEHXZ`
`?Kickoff@CLoginClientSessionManager@@QAEHPAVCLoginClientSession@@@Z`
`?Listen_Add@CSocket_Acceptor@@QAEHPADHKH@Z`
`?Listen_Client@LoginServer@@QAEHXZ`
`?Listen_OPTool@LoginServer@@QAEHXZ`
`?Listen_Start@CSocket_Acceptor@@QAEHXZ`
`?Listen_Stop@CSocket_Acceptor@@QAEHXZ`
`?Listen_WorldManager@LoginServer@@QAEHXZ`
`?MainThread@LoginServer@@SGKPAX@Z`
`?MakeData@CCsl@@AAEPAUCSL_DATA_LIST@1@KPAUCSL_FORMAT_LIST@1@@Z`
`?MakeDataTable@CCsl@@AAEHXZ`
`?MakeFormat@CCsl@@AAEPAUCSL_FORMAT_LIST@1@XZ`
`?MakeFormatTable@CCsl@@AAEHXZ`
`?MakeOTP@COTPLogin@@QAEHPAVCOTPData@@@Z`
`?MinidumpCallStack@MiniDumper@@SAXPAU_EXCEPTION_POINTERS@@@Z`
`?OnStart_Service@@YA_NXZ`
`?OnStart_Service@LoginServer@@QAE_NXZ`
`?OnStop_Service@@YAXXZ`
`?OnStop_Service@LoginServer@@QAEXXZ`
`?Open@CGdp@@QAEHK@Z`
`?Open@CGdp@@QAEHPBD@Z`
`?Open@CToken@@QAEHPAD@Z`
`?OpenFromMemory@CToken@@QAEHPAD@Z`
`?Parameter_filename@CCsl@@AAEHPAD@Z`
`?ParseCmd@LoginServer@@QAE_NPAD@Z`
`?Parser@CParserAccountDB@@QAEHPAVCLoginAccountDBSession@@@Z`
`?Parser@CParserAccountLogDB@@QAEHPAVCLoginAccountLogDBSession@@@Z`
`?Parser@CParserClient@@QAEHPAVCLoginClientSession@@@Z`
`?Parser@CParserOPTool@@QAEHPAVCLoginOPToolSession@@@Z`
`?Parser@CParserWorldManager@@QAEHPAVCLoginWorldManagerSession@@@Z`
`?ProcCmd@CCsl@@AAEHPAD0@Z`
`?ProcData@CCsl@@AAEHPAD0@Z`
`?ProcHeartBeat@CLoginBaseSessionManager@@QAEXPAVCIOCP@@@Z`
`?ProcRemark@CCsl@@AAEHPAD@Z`
`?ProcessConnect@LoginServer@@QAEXXZ`
`?ProcessDisconnect@LoginServer@@QAEXXZ`
`?ProcessLink@LoginServer@@QAEXXZ`
`?ProcessPacket@LoginServer@@QAEXXZ`
`?ProcessStop@LoginServer@@QAEXXZ`
`?Read@CCsl@@QAEHPAD@Z`
`?ReadDefineScriptor@LoginServer@@QAEHXZ`
`?ReadFile@CGdp@@QAEHPAX0KPAKPAU_OVERLAPPED@@@Z`
`?ReadGlobalGameData@LoginServer@@QAEHXZ`
`?ReadScript@CCsl@@QAEHPADPAUHWND__@@IPAX@Z`
`?ReadScriptDone@CCsl@@AAEXXZ`
`?ReadServerInfo@CServerInfo@@QAEHPAD@Z`
`?Receive@CLoginBaseSession@@QAEHXZ`
`?Receive@CSocket_IOCP@@QAEHPAXKPAK@Z`
`?Register@CIOCP@@QAEPAXPAXK@Z`
`?RemoveAllUsedPacket@CPacket@@UAEHXZ`
`?RestoreTokenPositon@CToken@@QAEHPBD@Z`
`?SLS_AddLog@cShineLogSystem@@QAA_NPBDZZ`
`?SLS_SetLogName@cShineLogSystem@@QAEXPAD@Z`
`?SaveTokenPositon@CToken@@QAEXXZ`
`?Send@CLoginBaseSession@@QAEHPAVCSendPacket@@@Z`
`?Send@CLoginBaseSession@@QAEHPAXH@Z`
`?Send@CLoginClientSessionManager@@QAEHGPAXH@Z`
`?Send@CSocket_IOCP@@QAEHPAXK@Z`
`?Send_NC_MISC_S2SCONNECTION_RDY@CLoginOPToolSession@@QAEHXZ`
`?Send_NC_MISC_S2SCONNECTION_RDY@CLoginWorldManagerSession@@QAEHXZ`
`?Send_NC_MISC_SEED_ACK@CLoginClientSession@@QAEHXZ`
`?SetAccepted@CSocket_Acceptor@@QAEHIPAUsockaddr_in@@K@Z`
`?SetFilePointer@CGdp@@QAEKPAXJPAJK@Z`
`?SetSeprator@CToken@@QAEXPAD@Z`
`?SetSessionMode@CLoginClientSession@@QAEXW4SessionMode@1@@Z`
`?SetSize@CSendPacket@@QAEHK@Z`
`?SetWMSession@CLoginWorldManagerSessionManager@@QAEXHPAVCLoginWorldManagerSession@@@Z`
`?SetWorldManagerConnectInfo@CLoginWorldManagerSessionManager@@QAEXHPAUPROTO_NC_MISC_USER_COUNT_CMD@@@Z`
`?ShineExit@@YAXPAD@Z`
`?Shutdown@CSocket_IOCP@@QAEHXZ`
`?Socket_Register_To_IOCP@CLoginBaseSession@@QAEHPAVCIOCP@@@Z`
`?Start@CIOCP@@QAEHHH@Z`
`?Start@LoginServer@@QAEHPAD@Z`
`?Start_Acceptor@LoginServer@@QAEHXZ`
`?Start_MainThread@LoginServer@@QAEHXZ`
`?Stop@CIOCP@@QAEXH@Z`
`?Stop@CSocket_Acceptor@@QAEHXZ`
`?TakeNextPacket@CPacket@@UAEXXZ`
`?TopLevelFilter@MiniDumper@@CGJPAU_EXCEPTION_POINTERS@@@Z`
`?Transform@CMD5Checksum@@IAEXQAE@Z`
`?Update@CMD5Checksum@@IAEXPAEK@Z`
`?UpdateWriteDataInfo@CGdp@@AAEXPBXK@Z`
`?VarClear@CCsl@@QAEXXZ`
`?ViewErrorMsg@CServerInfo@@QAEXXZ`
`?ViewResultMsg@CCsl@@QAEXXZ`
`?ViewStartInfo@LoginServer@@QAEXXZ`
`?ViewStopInfo@LoginServer@@QAEXXZ`
`?Wait@CIOSpinLock@@IAEXXZ`
`?WinSockStart@InetAddress@@SAHHH@Z`
`?WorkThread@CIOCP@@SGKPAX@Z`
`?WriteCallback@CSocket_IOCP@@QAEXK@Z`
`?WriteData@CCsl@@QAEHPADPAX@Z`
`?WriteData@CPacket@@QAEXPAXH@Z`
`?WriteFile@CGdp@@QAEHPAXPBXKPAKPAU_OVERLAPPED@@@Z`
`?WriteFormat@CCsl@@QAEHPADPAX@Z`
`?_BADOFF@std@@3_JB`
`?_CallCatchBlock2@@YAPAXPAUEHRegistrationNode@@PBU_s_FuncInfo@@PAXHK@Z`
`?_CallMemberFunction0@@YGXPAX0@Z`
`?_CallMemberFunction1@@YGXPAX00@Z`
`?_CallMemberFunction2@@YGXPAX00H@Z`
`?_CallSETranslator@@YAHPAUEHExceptionRecord@@PAUEHRegistrationNode@@PAX2PBU_s_FuncInfo@@H1@Z`
`?_Clocptr@_Locimp@locale@std@@0PAV123@A`
`?_Copy@?$basic_string@DU?$char_traits@D@std@@V?$allocator@D@2@@std@@QAEXII@Z`
`?_Copy_str@exception@std@@AAEXPBD@Z`
`?_DEBUGMSG@@YAXPBDZZ`
`?_DEBUGMSGVC@@YAXHPBDZZ`
`?_DebugMessageNew2@@YAXHPBD0PAD@Z`
`?_DebugMessageNew@@YAXHPBD0ZZ`
`?_Decref@facet@locale@std@@QAEPAV123@XZ`
`?_ExecUpdateInfoMsg@@YAXPBD@Z`
`?_GetRangeOfTrysToCheck@@YAPBU_s_TryBlockMapEntry@@PBU_s_FuncInfo@@HHPAI1@Z`
`?_Id_cnt@id@locale@std@@0HA`
`?_Index@ios_base@std@@0HA`
`?_JumpToContinuation@@YGXPAXPAUEHRegistrationNode@@@Z`
`?_PJP_CPP_Copyright@@3PADA`
`?_Ptr_cerr@std@@3PAV?$basic_ostream@DU?$char_traits@D@std@@@1@A`
`?_Ptr_cin@std@@3PAV?$basic_istream@DU?$char_traits@D@std@@@1@A`
`?_Ptr_clog@std@@3PAV?$basic_ostream@DU?$char_traits@D@std@@@1@A`
`?_Ptr_cout@std@@3PAV?$basic_ostream@DU?$char_traits@D@std@@@1@A`
`?_Ptr_wcerr@std@@3PAV?$basic_ostream@_WU?$char_traits@_W@std@@@1@A`
`?_Ptr_wcin@std@@3PAV?$basic_istream@_WU?$char_traits@_W@std@@@1@A`
`?_Ptr_wclog@std@@3PAV?$basic_ostream@_WU?$char_traits@_W@std@@@1@A`
`?_Ptr_wcout@std@@3PAV?$basic_ostream@_WU?$char_traits@_W@std@@@1@A`
`?_Sync@ios_base@std@@0_NA`
`?_Tidy@exception@std@@AAEXXZ`
`?_Type_info_dtor@type_info@@CAXPAV1@@Z`
`?_UnwindNestedFrames@@YGXPAUEHRegistrationNode@@PAUEHExceptionRecord@@@Z`
`?_ValidateExecute@@YAHP6GHXZ@Z`
`?_ValidateRead@@YAHPBXI@Z`
`?_ValidateWrite@@YAHPAXI@Z`
`?_Xlength_error@std@@YAXPBD@Z`
`?_Xout_of_range@std@@YAXPBD@Z`
`?__ArrayUnwind@@YGXPAXIHP6EX0@Z@Z`
`?__CxxUnhandledExceptionFilter@@YGJPAU_EXCEPTION_POINTERS@@@Z`
`?__pInconsistency@@3P6AXXZA`
`?_inconsistency@@YAXXZ`
`?_pnhHeap@@3P6AHI@ZA`
`?ac_AssertFail@AssertClass@@AAEXPBDH@Z`
`?ac_DateTime@AssertClass@@AAEXXZ`
`?allocate@?$allocator@D@std@@QAEPADI@Z`
`?append@?$basic_string@DU?$char_traits@D@std@@V?$allocator@D@2@@std@@QAEAAV12@ABV12@II@Z`
`?assign@?$basic_string@DU?$char_traits@D@std@@V?$allocator@D@2@@std@@QAEAAV12@ABV12@II@Z`
`?assign@?$basic_string@DU?$char_traits@D@std@@V?$allocator@D@2@@std@@QAEAAV12@PBDI@Z`
`?default_error_condition@_System_error_category@std@@UBE?AVerror_condition@2@H@Z`
`?default_error_condition@error_category@std@@UBE?AVerror_condition@2@H@Z`
`?disableFlags@UnDecorator@@0KA`
`?equivalent@error_category@std@@UBE_NABVerror_code@2@H@Z`
`?equivalent@error_category@std@@UBE_NHABVerror_condition@2@@Z`
`?erase@?$basic_string@DU?$char_traits@D@std@@V?$allocator@D@2@@std@@QAEAAV12@II@Z`
`?fExplicitTemplateParams@UnDecorator@@0_NA`
`?fGetTemplateArgumentList@UnDecorator@@0_NA`
`?fc_NC_MISC_DELIVER_WM_LOGIN_ACDB_CMD@CParserWorldManager@@QAEHPAVCLoginWorldManagerSession@@PAUNETPACKET@@H@Z`
`?fc_NC_MISC_DELIVER_WM_LOGIN_ALDB_CMD@CParserWorldManager@@QAEHPAVCLoginWorldManagerSession@@PAUNETPACKET@@H@Z`
`?fc_NC_MISC_HEARTBEAT_ACK@CParserAccountDB@@QAEHPAVCLoginAccountDBSession@@PAUNETPACKET@@H@Z`
`?fc_NC_MISC_HEARTBEAT_ACK@CParserAccountLogDB@@QAEHPAVCLoginAccountLogDBSession@@PAUNETPACKET@@H@Z`
`?fc_NC_MISC_HEARTBEAT_ACK@CParserClient@@QAEHPAVCLoginClientSession@@PAUNETPACKET@@H@Z`
`?fc_NC_MISC_HEARTBEAT_ACK@CParserOPTool@@QAEHPAVCLoginOPToolSession@@PAUNETPACKET@@H@Z`
`?fc_NC_MISC_HEARTBEAT_ACK@CParserWorldManager@@QAEHPAVCLoginWorldManagerSession@@PAUNETPACKET@@H@Z`
`?fc_NC_MISC_HEARTBEAT_REQ@CParserAccountDB@@QAEHPAVCLoginAccountDBSession@@PAUNETPACKET@@H@Z`
`?fc_NC_MISC_HEARTBEAT_REQ@CParserAccountLogDB@@QAEHPAVCLoginAccountLogDBSession@@PAUNETPACKET@@H@Z`
`?fc_NC_MISC_HEARTBEAT_REQ@CParserClient@@QAEHPAVCLoginClientSession@@PAUNETPACKET@@H@Z`
`?fc_NC_MISC_HEARTBEAT_REQ@CParserOPTool@@QAEHPAVCLoginOPToolSession@@PAUNETPACKET@@H@Z`
`?fc_NC_MISC_HEARTBEAT_REQ@CParserWorldManager@@QAEHPAVCLoginWorldManagerSession@@PAUNETPACKET@@H@Z`
`?fc_NC_MISC_S2SCONNECTION_ACK@CParserAccountDB@@QAEHPAVCLoginAccountDBSession@@PAUNETPACKET@@H@Z`
`?fc_NC_MISC_S2SCONNECTION_ACK@CParserAccountLogDB@@QAEHPAVCLoginAccountLogDBSession@@PAUNETPACKET@@H@Z`
`?fc_NC_MISC_S2SCONNECTION_RDY@CParserAccountDB@@QAEHPAVCLoginAccountDBSession@@PAUNETPACKET@@H@Z`
`?fc_NC_MISC_S2SCONNECTION_RDY@CParserAccountLogDB@@QAEHPAVCLoginAccountLogDBSession@@PAUNETPACKET@@H@Z`
`?fc_NC_MISC_S2SCONNECTION_REQ@CParserOPTool@@QAEHPAVCLoginOPToolSession@@PAUNETPACKET@@H@Z`
`?fc_NC_MISC_S2SCONNECTION_REQ@CParserWorldManager@@QAEHPAVCLoginWorldManagerSession@@PAUNETPACKET@@H@Z`
`?fc_NC_MISC_START_THE_BOOM_CMD@CParserWorldManager@@QAEHPAVCLoginWorldManagerSession@@PAUNETPACKET@@H@Z`
`?fc_NC_MISC_USER_COUNT_CMD@CParserWorldManager@@QAEHPAVCLoginWorldManagerSession@@PAUNETPACKET@@H@Z`
`?fc_NC_OPTOOL_CLOSE_SERVER_REQ@CParserOPTool@@QAEHPAVCLoginOPToolSession@@PAUNETPACKET@@H@Z`
`?fc_NC_OPTOOL_CONNECT_BRIF_REQ@CParserOPTool@@QAEHPAVCLoginOPToolSession@@PAUNETPACKET@@H@Z`
`?fc_NC_OPTOOL_LOGIN_USER_RATABLE_GET_REQ@CParserOPTool@@QAEHPAVCLoginOPToolSession@@PAUNETPACKET@@H@Z`
`?fc_NC_OPTOOL_LOGIN_USER_RATABLE_SET_CMD@CParserOPTool@@QAEHPAVCLoginOPToolSession@@PAUNETPACKET@@H@Z`
`?fc_NC_OPTOOL_LOGON_PROCESS_TIME_VIEW_CLR@CParserOPTool@@QAEHPAVCLoginOPToolSession@@PAUNETPACKET@@H@Z`
`?fc_NC_OPTOOL_LOGON_PROCESS_TIME_VIEW_REQ@CParserOPTool@@QAEHPAVCLoginOPToolSession@@PAUNETPACKET@@H@Z`
`?fc_NC_OPTOOL_MAP_USER_LIST_REQ@CParserOPTool@@QAEHPAVCLoginOPToolSession@@PAUNETPACKET@@H@Z`
`?fc_NC_OPTOOL_S2SCONNECT_LIST_REQ@CParserOPTool@@QAEHPAVCLoginOPToolSession@@PAUNETPACKET@@H@Z`
`?fc_NC_USER_CH_PASSWORD_CHECK_ACK@CParserAccountDB@@QAEHPAVCLoginAccountDBSession@@PAUNETPACKET@@H@Z`
`?fc_NC_USER_CLIENT_VERSION_CHECK_REQ@CParserClient@@QAEHPAVCLoginClientSession@@PAUNETPACKET@@H@Z`
`?fc_NC_USER_CREATE_OTP_REQ@CParserWorldManager@@QAEHPAVCLoginWorldManagerSession@@PAUNETPACKET@@H@Z`
`?fc_NC_USER_GER_IS_IP_BLOCK_ACK@CParserAccountLogDB@@QAEHPAVCLoginAccountLogDBSession@@PAUNETPACKET@@H@Z`
`?fc_NC_USER_GER_PASSWORD_CHECK_ACK@CParserAccountDB@@QAEHPAVCLoginAccountDBSession@@PAUNETPACKET@@H@Z`
`?fc_NC_USER_IS_IP_BLOCK_ACK@CParserAccountLogDB@@QAEHPAVCLoginAccountLogDBSession@@PAUNETPACKET@@H@Z`
`?fc_NC_USER_JP_IS_IP_BLOCK_ACK@CParserAccountLogDB@@QAEHPAVCLoginAccountLogDBSession@@PAUNETPACKET@@H@Z`
`?fc_NC_USER_JP_PASSWORD_CHECK_ACK@CParserAccountDB@@QAEHPAVCLoginAccountDBSession@@PAUNETPACKET@@H@Z`
`?fc_NC_USER_LOGIN_NETMARBLE_REQ@CParserClient@@QAEHPAVCLoginClientSession@@PAUNETPACKET@@H@Z`
`?fc_NC_USER_LOGIN_OUTSPARK_REQ@CParserClient@@QAEHPAVCLoginClientSession@@PAUNETPACKET@@H@Z`
`?fc_NC_USER_LOGIN_REQ@CParserClient@@QAEHPAVCLoginClientSession@@PAUNETPACKET@@H@Z`
`?fc_NC_USER_LOGIN_WITH_OTP_REQ@CParserClient@@QAEHPAVCLoginClientSession@@PAUNETPACKET@@H@Z`
`?fc_NC_USER_NORMALLOGOUT_CMD@CParserClient@@QAEHPAVCLoginClientSession@@PAUNETPACKET@@H@Z`
`?fc_NC_USER_PASSWORD_CHECK_ACK@CParserAccountDB@@QAEHPAVCLoginAccountDBSession@@PAUNETPACKET@@H@Z`
`?fc_NC_USER_TEENAGER_ACK@CParserAccountDB@@QAEHPAVCLoginAccountDBSession@@PAUNETPACKET@@H@Z`
`?fc_NC_USER_TW_IS_IP_BLOCK_ACK@CParserAccountLogDB@@QAEHPAVCLoginAccountLogDBSession@@PAUNETPACKET@@H@Z`
`?fc_NC_USER_TW_PASSWORD_CHECK_ACK@CParserAccountDB@@QAEHPAVCLoginAccountDBSession@@PAUNETPACKET@@H@Z`
`?fc_NC_USER_US_IS_IP_BLOCK_ACK@CParserAccountLogDB@@QAEHPAVCLoginAccountLogDBSession@@PAUNETPACKET@@H@Z`
`?fc_NC_USER_US_LOGIN_REQ@CParserClient@@QAEHPAVCLoginClientSession@@PAUNETPACKET@@H@Z`
`?fc_NC_USER_US_PASSWORD_CHECK_ACK@CParserAccountDB@@QAEHPAVCLoginAccountDBSession@@PAUNETPACKET@@H@Z`
`?fc_NC_USER_WILLLOGIN_ACK@CParserWorldManager@@QAEHPAVCLoginWorldManagerSession@@PAUNETPACKET@@H@Z`
`?fc_NC_USER_WORLDSELECT_REQ@CParserClient@@QAEHPAVCLoginClientSession@@PAUNETPACKET@@H@Z`
`?fc_NC_USER_WORLD_STATUS_REQ@CParserClient@@QAEHPAVCLoginClientSession@@PAUNETPACKET@@H@Z`
`?fc_NC_USER_XTRAP_REQ@CParserClient@@QAEHPAVCLoginClientSession@@PAUNETPACKET@@H@Z`
`?fc_dummyfunction@CParserAccountDB@@QAEHPAVCLoginAccountDBSession@@PAUNETPACKET@@H@Z`
`?fc_dummyfunction@CParserAccountLogDB@@QAEHPAVCLoginAccountLogDBSession@@PAUNETPACKET@@H@Z`
`?fc_dummyfunction@CParserClient@@QAEHPAVCLoginClientSession@@PAUNETPACKET@@H@Z`
`?fc_dummyfunction@CParserOPTool@@QAEHPAVCLoginOPToolSession@@PAUNETPACKET@@H@Z`
`?fc_dummyfunction@CParserWorldManager@@QAEHPAVCLoginWorldManagerSession@@PAUNETPACKET@@H@Z`
`?fclose@CGdp@@QAEHPAU_iobuf@@@Z`
`?gDebugMessageCounter@@3GA`
`?gName@UnDecorator@@0PBDB`
`?gServer@@3VLoginServer@@A`
`?gShineGetRaceFromClassTable@@3PAEA`
`?gSocket_IOCP_Write@@3VcShineLogSystem@@A`
`?gZoneLinktoErrorLog@@3VcShineLogSystem@@A`
`?gbDMVCICOP@@3HA`
`?getBuffer@String@@QAEPADXZ`
`?getInstance@?$Singleton@VWinService@@@@SAPAVWinService@@XZ`
`?gpShineServerIDNames@@3PAPBDA`
`?gpShineServerIDShortNames@@3PAPBDA`
`?id@?$codecvt@DDH@std@@2V0locale@2@A`
`?id@?$codecvt@GDH@std@@2V0locale@2@A`
`?id@?$codecvt@_WDH@std@@2V0locale@2@A`
`?id@?$ctype@D@std@@2V0locale@2@A`
`?id@?$ctype@G@std@@2V0locale@2@A`
`?id@?$ctype@_W@std@@2V0locale@2@A`
`?id@?$num_put@DV?$ostreambuf_iterator@DU?$char_traits@D@std@@@std@@@std@@2V0locale@2@A`
`?id@?$numpunct@D@std@@2V0locale@2@A`
`?initialize@WinService@@UAEXXZ`
`?m_NULLstr@CToken@@2DA`
`?m_pGetParameter@UnDecorator@@0P6APADJ@ZA`
`?makeUpper@String@@QAEXXZ`
`?maxStringLength@UnDecorator@@0HA`
`?message@_Generic_error_category@std@@UBE?AV?$basic_string@DU?$char_traits@D@std@@V?$allocator@D@2@@2@H@Z`
`?message@_Iostream_error_category@std@@UBE?AV?$basic_string@DU?$char_traits@D@std@@V?$allocator@D@2@@2@H@Z`
`?ms_bEncrypt@CCsl@@1HA`
`?ms_pEncryptFN_Ext@CCsl@@1PADA`
`?my_tcstok@CToken@@QAEPADPADPBD@Z`
`?name@UnDecorator@@0PBDB`
`?name@_Generic_error_category@std@@UBEPBDXZ`
`?name@_Iostream_error_category@std@@UBEPBDXZ`
`?name@_System_error_category@std@@UBEPBDXZ`
`?onServiceStart@WinService@@AAE_NXZ`
`?onServiceStop@WinService@@AAEXXZ`
`?outputString@UnDecorator@@0PADA`
`?pArgList@UnDecorator@@0PAVReplicator@@A`
`?pTemplateArgList@UnDecorator@@0PAVReplicator@@A`
`?pZNameList@UnDecorator@@0PAVReplicator@@A`
`?pe_FromClientToServer@PacketEncrypt@@QAEPAEPAEH@Z`
`?pe_encryptlen@PacketEncrypt@@0HB`
`?pe_encryptstr@PacketEncrypt@@0PADA`
`?pft_Store@?$PROTOCOLFUNCTIONTEMPLETE@P8CParserAccountDB@@AEHPAVCLoginAccountDBSession@@PAUNETPACKET@@H@Z@@QAEXHHP8CParserAccountDB@@AEHPAVCLoginAccountDBSession@@PAUNETPACKET@@H@Z@Z`
`?pft_Store@?$PROTOCOLFUNCTIONTEMPLETE@P8CParserAccountLogDB@@AEHPAVCLoginAccountLogDBSession@@PAUNETPACKET@@H@Z@@QAEXHHP8CParserAccountLogDB@@AEHPAVCLoginAccountLogDBSession@@PAUNETPACKET@@H@Z@Z`
`?pft_Store@?$PROTOCOLFUNCTIONTEMPLETE@P8CParserClient@@AEHPAVCLoginClientSession@@PAUNETPACKET@@H@Z@@QAEXHHP8CParserClient@@AEHPAVCLoginClientSession@@PAUNETPACKET@@H@Z@Z`
`?pft_Store@?$PROTOCOLFUNCTIONTEMPLETE@P8CParserOPTool@@AEHPAVCLoginOPToolSession@@PAUNETPACKET@@H@Z@@QAEXHHP8CParserOPTool@@AEHPAVCLoginOPToolSession@@PAUNETPACKET@@H@Z@Z`
`?pft_Store@?$PROTOCOLFUNCTIONTEMPLETE@P8CParserWorldManager@@AEHPAVCLoginWorldManagerSession@@PAUNETPACKET@@H@Z@@QAEXHHP8CParserWorldManager@@AEHPAVCLoginWorldManagerSession@@PAUNETPACKET@@H@Z@Z`
`?queryServiceStatus@WinService@@QAEHPAKPBD1@Z`
`?removeService@WinService@@QAE_NVString@@@Z`
`?s_nAlloc@CIOBuffer@@2JA`
`?s_nCount@CIOBuffer@@2JA`
`?selfInstance@?$Singleton@VWinService@@@@0PAVWinService@@A`
`?serviceHandler@WinService@@CGXK@Z`
`?serviceLoop@WinService@@CGXKPAPAD@Z`
`?shineassert@@3VAssertClass@@A`
`?startDispatcher@WinService@@QAE_NVString@@P6A_NXZP6AXXZ@Z`
`?terminate@@YAXXZ`
`?unexpected@@YAXXZ`
`?uploadService@WinService@@QAE_NVString@@00@Z`
`?what@exception@std@@UBEPBDXZ`
